(lp0
(lp1
(i__main__
tree
p2
(dp3
S'wil'
p4
F0.0
sS'cl'
p5
I-1
sS'kids'
p6
(lp7
(i__main__
tree
p8
(dp9
g4
F0.0
sg5
I-1
sg6
(lp10
(i__main__
tree
p11
(dp12
g4
cnumpy.core.multiarray
scalar
p13
(cnumpy
dtype
p14
(S'f8'
p15
I0
I1
tp16
Rp17
(I3
S'<'
p18
NNNI-1
I-1
I0
tp19
bS'e\x0bv\x0e\xa0.\xef?'
p20
tp21
Rp22
sg5
I0
sg6
(lp23
sS'identity'
p24
I-1
sS'op'
p25
I-1
sba(i__main__
tree
p26
(dp27
g4
F0.0
sg5
I-1
sg6
(lp28
(i__main__
tree
p29
(dp30
g4
F0.0
sg5
I-1
sg6
(lp31
(i__main__
tree
p32
(dp33
g4
F0.0
sg5
I-1
sg6
(lp34
(i__main__
tree
p35
(dp36
g4
F0.0
sg5
I-1
sg6
(lp37
(i__main__
tree
p38
(dp39
g4
F0.0
sg5
I-1
sg6
(lp40
(i__main__
tree
p41
(dp42
g4
g13
(g17
S'\xd26Wy\x0fj\xe7?'
p43
tp44
Rp45
sg5
I0
sg6
(lp46
sg24
I-1
sg25
I-1
sba(i__main__
tree
p47
(dp48
g4
g13
(g17
S'\xa6\xbb\xfa\xe5\xf5\x90\xe8?'
p49
tp50
Rp51
sg5
I0
sg6
(lp52
sg24
I-1
sg25
I-1
sbasg24
I-1
sg25
g13
(g14
(S'i8'
p53
I0
I1
tp54
Rp55
(I3
S'<'
p56
NNNI-1
I-1
I0
tp57
bS'\x00\x00\x00\x00\x00\x00\x00\x00'
p58
tp59
Rp60
sba(i__main__
tree
p61
(dp62
g4
F0.0
sg5
I-1
sg6
(lp63
(i__main__
tree
p64
(dp65
g4
g13
(g17
S'\xc8\xe1\x1er7\xfa\xdb?'
p66
tp67
Rp68
sg5
I0
sg6
(lp69
sg24
I-1
sg25
I-1
sba(i__main__
tree
p70
(dp71
g4
g13
(g17
S'\x96\xb2\x9b\xc5\xecA\xe0?'
p72
tp73
Rp74
sg5
I0
sg6
(lp75
sg24
I-1
sg25
I-1
sbasg24
I-1
sg25
g13
(g55
S'\x00\x00\x00\x00\x00\x00\x00\x00'
p76
tp77
Rp78
sbasg24
I-1
sg25
g13
(g55
S'\x10\x00\x00\x00\x00\x00\x00\x00'
p79
tp80
Rp81
sba(i__main__
tree
p82
(dp83
g4
F0.0
sg5
I-1
sg6
(lp84
(i__main__
tree
p85
(dp86
g4
F0.0
sg5
I-1
sg6
(lp87
(i__main__
tree
p88
(dp89
g4
g13
(g17
S'\xf5Jx\xee\xa5\xb5\xe1?'
p90
tp91
Rp92
sg5
I0
sg6
(lp93
sg24
I-1
sg25
I-1
sba(i__main__
tree
p94
(dp95
g4
g13
(g17
S'\x1eV\x0b\xb5\x02p\xca?'
p96
tp97
Rp98
sg5
I0
sg6
(lp99
sg24
I-1
sg25
I-1
sbasg24
I-1
sg25
g13
(g55
S'\x00\x00\x00\x00\x00\x00\x00\x00'
p100
tp101
Rp102
sba(i__main__
tree
p103
(dp104
g4
g13
(g17
S'\n#)\ro=\xe8?'
p105
tp106
Rp107
sg5
I0
sg6
(lp108
sg24
I-1
sg25
I-1
sbasg24
I-1
sg25
g13
(g55
S'\x10\x00\x00\x00\x00\x00\x00\x00'
p109
tp110
Rp111
sbasg24
I-1
sg25
g13
(g55
S'\x08\x00\x00\x00\x00\x00\x00\x00'
p112
tp113
Rp114
sba(i__main__
tree
p115
(dp116
g4
g13
(g17
S'\x1e\x027\x96A\xa9\xe4?'
p117
tp118
Rp119
sg5
I0
sg6
(lp120
sg24
I-1
sg25
I-1
sbasg24
I-1
sg25
g13
(g55
S'\x16\x00\x00\x00\x00\x00\x00\x00'
p121
tp122
Rp123
sba(i__main__
tree
p124
(dp125
g4
F0.0
sg5
I-1
sg6
(lp126
(i__main__
tree
p127
(dp128
g4
F0.0
sg5
I-1
sg6
(lp129
(i__main__
tree
p130
(dp131
g4
F0.0
sg5
I-1
sg6
(lp132
(i__main__
tree
p133
(dp134
g4
F0.0
sg5
I-1
sg6
(lp135
(i__main__
tree
p136
(dp137
g4
g13
(g17
S'\x9a\xaa\xf5Y+\xab\xd6?'
p138
tp139
Rp140
sg5
I0
sg6
(lp141
sg24
I-1
sg25
I-1
sba(i__main__
tree
p142
(dp143
g4
g13
(g17
S')\x90\xfe\xdd\x85\xb5\xd2?'
p144
tp145
Rp146
sg5
I0
sg6
(lp147
sg24
I-1
sg25
I-1
sbasg24
I-1
sg25
g13
(g55
S'\x16\x00\x00\x00\x00\x00\x00\x00'
p148
tp149
Rp150
sba(i__main__
tree
p151
(dp152
g4
g13
(g17
S'\x1eV\x0b\xb5\x02p\xca?'
p153
tp154
Rp155
sg5
I1
sg6
(lp156
sg24
I-1
sg25
I-1
sbasg24
I-1
sg25
g13
(g55
S'\x08\x00\x00\x00\x00\x00\x00\x00'
p157
tp158
Rp159
sba(i__main__
tree
p160
(dp161
g4
F0.0
sg5
I-1
sg6
(lp162
(i__main__
tree
p163
(dp164
g4
g13
(g17
S'\xb7\x9f\x1439\xc4\xe5?'
p165
tp166
Rp167
sg5
I0
sg6
(lp168
sg24
I-1
sg25
I-1
sba(i__main__
tree
p169
(dp170
g4
g13
(g17
S'?\xd8\xfd\xccH\x10\xdc?'
p171
tp172
Rp173
sg5
I0
sg6
(lp174
sg24
I-1
sg25
I-1
sbasg24
I-1
sg25
g13
(g55
S'\x08\x00\x00\x00\x00\x00\x00\x00'
p175
tp176
Rp177
sbasg24
I-1
sg25
g13
(g55
S'\x00\x00\x00\x00\x00\x00\x00\x00'
p178
tp179
Rp180
sba(i__main__
tree
p181
(dp182
g4
F0.0
sg5
I-1
sg6
(lp183
(i__main__
tree
p184
(dp185
g4
F0.0
sg5
I-1
sg6
(lp186
(i__main__
tree
p187
(dp188
g4
F0.0
sg5
I-1
sg6
(lp189
(i__main__
tree
p190
(dp191
g4
g13
(g17
S'\xaf\xd5\x16\xf7 \xa1\xe1?'
p192
tp193
Rp194
sg5
I1
sg6
(lp195
sg24
I-1
sg25
I-1
sba(i__main__
tree
p196
(dp197
g4
g13
(g17
S'\x1eV\x0b\xb5\x02p\xca?'
p198
tp199
Rp200
sg5
I1
sg6
(lp201
sg24
I-1
sg25
I-1
sbasg24
I-1
sg25
g13
(g55
S'\x16\x00\x00\x00\x00\x00\x00\x00'
p202
tp203
Rp204
sba(i__main__
tree
p205
(dp206
g4
g13
(g17
S'?\xd8\xfd\xccH\x10\xdc?'
p207
tp208
Rp209
sg5
I1
sg6
(lp210
sg24
I-1
sg25
I-1
sbasg24
I-1
sg25
g13
(g55
S'\x08\x00\x00\x00\x00\x00\x00\x00'
p211
tp212
Rp213
sba(i__main__
tree
p214
(dp215
g4
F0.0
sg5
I-1
sg6
(lp216
(i__main__
tree
p217
(dp218
g4
g13
(g17
S'D\xb2N\xbf^4\xc3?'
p219
tp220
Rp221
sg5
I0
sg6
(lp222
sg24
I-1
sg25
I-1
sba(i__main__
tree
p223
(dp224
g4
g13
(g17
S'\x1eV\x0b\xb5\x02p\xca?'
p225
tp226
Rp227
sg5
I0
sg6
(lp228
sg24
I-1
sg25
I-1
sbasg24
I-1
sg25
g13
(g55
S'\x08\x00\x00\x00\x00\x00\x00\x00'
p229
tp230
Rp231
sbasg24
I-1
sg25
g13
(g55
S'\x00\x00\x00\x00\x00\x00\x00\x00'
p232
tp233
Rp234
sbasg24
I-1
sg25
g13
(g55
S'\x10\x00\x00\x00\x00\x00\x00\x00'
p235
tp236
Rp237
sbasg24
I-1
sg25
g13
(g55
S'\x03\x00\x00\x00\x00\x00\x00\x00'
p238
tp239
Rp240
sbasg24
I-1
sg25
g13
(g55
S'\x06\x00\x00\x00\x00\x00\x00\x00'
p241
tp242
Rp243
sba(i__main__
tree
p244
(dp245
g4
F0.0
sg5
I-1
sg6
(lp246
(i__main__
tree
p247
(dp248
g4
F0.0
sg5
I-1
sg6
(lp249
(i__main__
tree
p250
(dp251
g4
g13
(g17
S'\x06\xb7\xefN\xa8\x1a\xee?'
p252
tp253
Rp254
sg5
I0
sg6
(lp255
sg24
I-1
sg25
I-1
sba(i__main__
tree
p256
(dp257
g4
F0.0
sg5
I-1
sg6
(lp258
(i__main__
tree
p259
(dp260
g4
F0.0
sg5
I-1
sg6
(lp261
(i__main__
tree
p262
(dp263
g4
F0.0
sg5
I-1
sg6
(lp264
(i__main__
tree
p265
(dp266
g4
F0.0
sg5
I-1
sg6
(lp267
(i__main__
tree
p268
(dp269
g4
g13
(g17
S'N\xef\xf9\xe7\x9e\xeb\xe0?'
p270
tp271
Rp272
sg5
I0
sg6
(lp273
sg24
I-1
sg25
I-1
sba(i__main__
tree
p274
(dp275
g4
g13
(g17
S'D\xb2N\xbf^4\xc3?'
p276
tp277
Rp278
sg5
I0
sg6
(lp279
sg24
I-1
sg25
I-1
sbasg24
I-1
sg25
g13
(g55
S'\x06\x00\x00\x00\x00\x00\x00\x00'
p280
tp281
Rp282
sba(i__main__
tree
p283
(dp284
g4
g13
(g17
S'D\xb2N\xbf^4\xc3?'
p285
tp286
Rp287
sg5
I0
sg6
(lp288
sg24
I-1
sg25
I-1
sbasg24
I-1
sg25
g13
(g55
S'\x00\x00\x00\x00\x00\x00\x00\x00'
p289
tp290
Rp291
sba(i__main__
tree
p292
(dp293
g4
g13
(g17
S'\xf6u\x8e;\xeb\xcd\xe9?'
p294
tp295
Rp296
sg5
I0
sg6
(lp297
sg24
I-1
sg25
I-1
sbasg24
I-1
sg25
g13
(g55
S'\x08\x00\x00\x00\x00\x00\x00\x00'
p298
tp299
Rp300
sba(i__main__
tree
p301
(dp302
g4
F0.0
sg5
I-1
sg6
(lp303
(i__main__
tree
p304
(dp305
g4
F0.0
sg5
I-1
sg6
(lp306
(i__main__
tree
p307
(dp308
g4
g13
(g17
S'"Fz\x14d\x1e\xe7?'
p309
tp310
Rp311
sg5
I1
sg6
(lp312
sg24
I-1
sg25
I-1
sba(i__main__
tree
p313
(dp314
g4
g13
(g17
S'\x1eV\x0b\xb5\x02p\xca?'
p315
tp316
Rp317
sg5
I0
sg6
(lp318
sg24
I-1
sg25
I-1
sbasg24
I-1
sg25
g13
(g55
S'\x06\x00\x00\x00\x00\x00\x00\x00'
p319
tp320
Rp321
sba(i__main__
tree
p322
(dp323
g4
F0.0
sg5
I-1
sg6
(lp324
(i__main__
tree
p325
(dp326
g4
g13
(g17
S'\xda\xa0.\rl\xe9\xc5?'
p327
tp328
Rp329
sg5
I0
sg6
(lp330
sg24
I-1
sg25
I-1
sba(i__main__
tree
p331
(dp332
g4
g13
(g17
S'\x1eV\x0b\xb5\x02p\xca?'
p333
tp334
Rp335
sg5
I0
sg6
(lp336
sg24
I-1
sg25
I-1
sbasg24
I-1
sg25
g13
(g55
S'\x00\x00\x00\x00\x00\x00\x00\x00'
p337
tp338
Rp339
sbasg24
I-1
sg25
g13
(g55
S'\x08\x00\x00\x00\x00\x00\x00\x00'
p340
tp341
Rp342
sbasg24
I-1
sg25
g13
(g55
S'\x16\x00\x00\x00\x00\x00\x00\x00'
p343
tp344
Rp345
sbasg24
I-1
sg25
g13
(g55
S'\x10\x00\x00\x00\x00\x00\x00\x00'
p346
tp347
Rp348
sba(i__main__
tree
p349
(dp350
g4
F0.0
sg5
I-1
sg6
(lp351
(i__main__
tree
p352
(dp353
g4
F0.0
sg5
I-1
sg6
(lp354
(i__main__
tree
p355
(dp356
g4
F0.0
sg5
I-1
sg6
(lp357
(i__main__
tree
p358
(dp359
g4
F0.0
sg5
I-1
sg6
(lp360
(i__main__
tree
p361
(dp362
g4
F0.0
sg5
I-1
sg6
(lp363
(i__main__
tree
p364
(dp365
g4
g13
(g17
S'.\x11\xbc\xd3o\x82\xcf?'
p366
tp367
Rp368
sg5
I1
sg6
(lp369
sg24
I-1
sg25
I-1
sba(i__main__
tree
p370
(dp371
g4
g13
(g17
S'd\x8e|\x01\x02V\xe3?'
p372
tp373
Rp374
sg5
I1
sg6
(lp375
sg24
I-1
sg25
I-1
sbasg24
I-1
sg25
g13
(g55
S'\x10\x00\x00\x00\x00\x00\x00\x00'
p376
tp377
Rp378
sba(i__main__
tree
p379
(dp380
g4
F0.0
sg5
I-1
sg6
(lp381
(i__main__
tree
p382
(dp383
g4
g13
(g17
S'\x08\xa6\xe0#\x95\xb7\xe7?'
p384
tp385
Rp386
sg5
I1
sg6
(lp387
sg24
I-1
sg25
I-1
sba(i__main__
tree
p388
(dp389
g4
g13
(g17
S'ix&\xf4*<\xe6?'
p390
tp391
Rp392
sg5
I1
sg6
(lp393
sg24
I-1
sg25
I-1
sbasg24
I-1
sg25
g13
(g55
S'\x10\x00\x00\x00\x00\x00\x00\x00'
p394
tp395
Rp396
sbasg24
I-1
sg25
g13
(g55
S'\x16\x00\x00\x00\x00\x00\x00\x00'
p397
tp398
Rp399
sba(i__main__
tree
p400
(dp401
g4
g13
(g17
S'\x14*\x93\xa2\x05\xd8\xea?'
p402
tp403
Rp404
sg5
I1
sg6
(lp405
sg24
I-1
sg25
I-1
sbasg24
I-1
sg25
g13
(g55
S'\x06\x00\x00\x00\x00\x00\x00\x00'
p406
tp407
Rp408
sba(i__main__
tree
p409
(dp410
g4
F0.0
sg5
I-1
sg6
(lp411
(i__main__
tree
p412
(dp413
g4
F0.0
sg5
I-1
sg6
(lp414
(i__main__
tree
p415
(dp416
g4
g13
(g17
S'\xd9\xa0.\rl\xe9\xd5?'
p417
tp418
Rp419
sg5
I0
sg6
(lp420
sg24
I-1
sg25
I-1
sba(i__main__
tree
p421
(dp422
g4
g13
(g17
S'.\x11\xbc\xd3o\x82\xcf?'
p423
tp424
Rp425
sg5
I0
sg6
(lp426
sg24
I-1
sg25
I-1
sbasg24
I-1
sg25
g13
(g55
S'\x10\x00\x00\x00\x00\x00\x00\x00'
p427
tp428
Rp429
sba(i__main__
tree
p430
(dp431
g4
g13
(g17
S'\xd9\xa0.\rl\xe9\xd5?'
p432
tp433
Rp434
sg5
I1
sg6
(lp435
sg24
I-1
sg25
I-1
sbasg24
I-1
sg25
g13
(g55
S'\x16\x00\x00\x00\x00\x00\x00\x00'
p436
tp437
Rp438
sbasg24
I-1
sg25
g13
(g55
S'\x00\x00\x00\x00\x00\x00\x00\x00'
p439
tp440
Rp441
sba(i__main__
tree
p442
(dp443
g4
F0.0
sg5
I-1
sg6
(lp444
(i__main__
tree
p445
(dp446
g4
F0.0
sg5
I-1
sg6
(lp447
(i__main__
tree
p448
(dp449
g4
F0.0
sg5
I-1
sg6
(lp450
(i__main__
tree
p451
(dp452
g4
F0.0
sg5
I-1
sg6
(lp453
(i__main__
tree
p454
(dp455
g4
g13
(g17
S'\xd9\xa0.\rl\xe9\xd5?'
p456
tp457
Rp458
sg5
I0
sg6
(lp459
sg24
I-1
sg25
I-1
sba(i__main__
tree
p460
(dp461
g4
g13
(g17
S'\xb2\xc4\x7f\xa9\x9e\x92\xd6?'
p462
tp463
Rp464
sg5
I0
sg6
(lp465
sg24
I-1
sg25
I-1
sbasg24
I-1
sg25
g13
(g55
S'\x10\x00\x00\x00\x00\x00\x00\x00'
p466
tp467
Rp468
sba(i__main__
tree
p469
(dp470
g4
F0.0
sg5
I-1
sg6
(lp471
(i__main__
tree
p472
(dp473
g4
g13
(g17
S'\xd9\xa0.\rl\xe9\xd5?'
p474
tp475
Rp476
sg5
I1
sg6
(lp477
sg24
I-1
sg25
I-1
sba(i__main__
tree
p478
(dp479
g4
g13
(g17
S'\xd9\xa0.\rl\xe9\xd5?'
p480
tp481
Rp482
sg5
I0
sg6
(lp483
sg24
I-1
sg25
I-1
sbasg24
I-1
sg25
g13
(g55
S'\x10\x00\x00\x00\x00\x00\x00\x00'
p484
tp485
Rp486
sbasg24
I-1
sg25
g13
(g55
S'\x06\x00\x00\x00\x00\x00\x00\x00'
p487
tp488
Rp489
sba(i__main__
tree
p490
(dp491
g4
F0.0
sg5
I-1
sg6
(lp492
(i__main__
tree
p493
(dp494
g4
g13
(g17
S'\x1eV\x0b\xb5\x02p\xca?'
p495
tp496
Rp497
sg5
I0
sg6
(lp498
sg24
I-1
sg25
I-1
sba(i__main__
tree
p499
(dp500
g4
g13
(g17
S'\xf5Jx\xee\xa5\xb5\xe1?'
p501
tp502
Rp503
sg5
I0
sg6
(lp504
sg24
I-1
sg25
I-1
sbasg24
I-1
sg25
g13
(g55
S'\x10\x00\x00\x00\x00\x00\x00\x00'
p505
tp506
Rp507
sbasg24
I-1
sg25
g13
(g55
S'\x00\x00\x00\x00\x00\x00\x00\x00'
p508
tp509
Rp510
sba(i__main__
tree
p511
(dp512
g4
F0.0
sg5
I-1
sg6
(lp513
(i__main__
tree
p514
(dp515
g4
g13
(g17
S'N\xc3A1\xbdR\xe0?'
p516
tp517
Rp518
sg5
I1
sg6
(lp519
sg24
I-1
sg25
I-1
sba(i__main__
tree
p520
(dp521
g4
g13
(g17
S'\x1eV\x0b\xb5\x02p\xca?'
p522
tp523
Rp524
sg5
I0
sg6
(lp525
sg24
I-1
sg25
I-1
sbasg24
I-1
sg25
g13
(g55
S'\x00\x00\x00\x00\x00\x00\x00\x00'
p526
tp527
Rp528
sbasg24
I-1
sg25
g13
(g55
S'\x16\x00\x00\x00\x00\x00\x00\x00'
p529
tp530
Rp531
sbasg24
I-1
sg25
g13
(g55
S'\x08\x00\x00\x00\x00\x00\x00\x00'
p532
tp533
Rp534
sbasg24
I-1
sg25
g13
(g55
S'\x03\x00\x00\x00\x00\x00\x00\x00'
p535
tp536
Rp537
sbasg24
I-1
sg25
g13
(g55
S'\x17\x00\x00\x00\x00\x00\x00\x00'
p538
tp539
Rp540
sba(i__main__
tree
p541
(dp542
g4
F0.0
sg5
I-1
sg6
(lp543
(i__main__
tree
p544
(dp545
g4
F0.0
sg5
I-1
sg6
(lp546
(i__main__
tree
p547
(dp548
g4
F0.0
sg5
I-1
sg6
(lp549
(i__main__
tree
p550
(dp551
g4
F0.0
sg5
I-1
sg6
(lp552
(i__main__
tree
p553
(dp554
g4
F0.0
sg5
I-1
sg6
(lp555
(i__main__
tree
p556
(dp557
g4
F0.0
sg5
I-1
sg6
(lp558
(i__main__
tree
p559
(dp560
g4
F0.0
sg5
I-1
sg6
(lp561
(i__main__
tree
p562
(dp563
g4
g13
(g17
S'\x9aC3\x86\x15\x8c\xcb?'
p564
tp565
Rp566
sg5
I0
sg6
(lp567
sg24
I-1
sg25
I-1
sba(i__main__
tree
p568
(dp569
g4
g13
(g17
S'2fN\xf1\xe6\xa4\xd6?'
p570
tp571
Rp572
sg5
I0
sg6
(lp573
sg24
I-1
sg25
I-1
sbasg24
I-1
sg25
g13
(g55
S'\x18\x00\x00\x00\x00\x00\x00\x00'
p574
tp575
Rp576
sba(i__main__
tree
p577
(dp578
g4
F0.0
sg5
I-1
sg6
(lp579
(i__main__
tree
p580
(dp581
g4
g13
(g17
S'\xb5\xc4A(5\x84\xe4?'
p582
tp583
Rp584
sg5
I0
sg6
(lp585
sg24
I-1
sg25
I-1
sba(i__main__
tree
p586
(dp587
g4
g13
(g17
S'8\xd1\xd3\xa3U\xc8\xde?'
p588
tp589
Rp590
sg5
I0
sg6
(lp591
sg24
I-1
sg25
I-1
sbasg24
I-1
sg25
g13
(g55
S'\x18\x00\x00\x00\x00\x00\x00\x00'
p592
tp593
Rp594
sbasg24
I-1
sg25
g13
(g55
S'\x10\x00\x00\x00\x00\x00\x00\x00'
p595
tp596
Rp597
sba(i__main__
tree
p598
(dp599
g4
F0.0
sg5
I-1
sg6
(lp600
(i__main__
tree
p601
(dp602
g4
g13
(g17
S'\xbe\xa8\x91e(\r\xeb?'
p603
tp604
Rp605
sg5
I0
sg6
(lp606
sg24
I-1
sg25
I-1
sba(i__main__
tree
p607
(dp608
g4
F0.0
sg5
I-1
sg6
(lp609
(i__main__
tree
p610
(dp611
g4
g13
(g17
S'\xe6c\xaa\xf5i\xef\xe3?'
p612
tp613
Rp614
sg5
I0
sg6
(lp615
sg24
I-1
sg25
I-1
sba(i__main__
tree
p616
(dp617
g4
g13
(g17
S'?\xd8\xfd\xccH\x10\xdc?'
p618
tp619
Rp620
sg5
I0
sg6
(lp621
sg24
I-1
sg25
I-1
sbasg24
I-1
sg25
g13
(g55
S'\x18\x00\x00\x00\x00\x00\x00\x00'
p622
tp623
Rp624
sbasg24
I-1
sg25
g13
(g55
S'\x10\x00\x00\x00\x00\x00\x00\x00'
p625
tp626
Rp627
sbasg24
I-1
sg25
g13
(g55
S'\x00\x00\x00\x00\x00\x00\x00\x00'
p628
tp629
Rp630
sba(i__main__
tree
p631
(dp632
g4
F0.0
sg5
I-1
sg6
(lp633
(i__main__
tree
p634
(dp635
g4
F0.0
sg5
I-1
sg6
(lp636
(i__main__
tree
p637
(dp638
g4
F0.0
sg5
I-1
sg6
(lp639
(i__main__
tree
p640
(dp641
g4
g13
(g17
S'\xa2\xea\xde>\x8dk\xeb?'
p642
tp643
Rp644
sg5
I0
sg6
(lp645
sg24
I-1
sg25
I-1
sba(i__main__
tree
p646
(dp647
g4
g13
(g17
S'\xb0H4\xf4\x16\xe8\xe8?'
p648
tp649
Rp650
sg5
I0
sg6
(lp651
sg24
I-1
sg25
I-1
sbasg24
I-1
sg25
g13
(g55
S'\x18\x00\x00\x00\x00\x00\x00\x00'
p652
tp653
Rp654
sba(i__main__
tree
p655
(dp656
g4
F0.0
sg5
I-1
sg6
(lp657
(i__main__
tree
p658
(dp659
g4
g13
(g17
S'G\xaa\x1a\xe0Q\xfa\xea?'
p660
tp661
Rp662
sg5
I0
sg6
(lp663
sg24
I-1
sg25
I-1
sba(i__main__
tree
p664
(dp665
g4
g13
(g17
S'\xc8\n\xbbvP8\xe6?'
p666
tp667
Rp668
sg5
I0
sg6
(lp669
sg24
I-1
sg25
I-1
sbasg24
I-1
sg25
g13
(g55
S'\x18\x00\x00\x00\x00\x00\x00\x00'
p670
tp671
Rp672
sbasg24
I-1
sg25
g13
(g55
S'\x10\x00\x00\x00\x00\x00\x00\x00'
p673
tp674
Rp675
sba(i__main__
tree
p676
(dp677
g4
g13
(g17
S'\x98G\xb2\xfe5\x0b\xee?'
p678
tp679
Rp680
sg5
I0
sg6
(lp681
sg24
I-1
sg25
I-1
sbasg24
I-1
sg25
g13
(g55
S'\x00\x00\x00\x00\x00\x00\x00\x00'
p682
tp683
Rp684
sbasg24
I-1
sg25
g13
(g55
S'\x03\x00\x00\x00\x00\x00\x00\x00'
p685
tp686
Rp687
sba(i__main__
tree
p688
(dp689
g4
g13
(g17
S'g\x95\xcbV\xf8-\xef?'
p690
tp691
Rp692
sg5
I0
sg6
(lp693
sg24
I-1
sg25
I-1
sbasg24
I-1
sg25
g13
(g55
S'\x0b\x00\x00\x00\x00\x00\x00\x00'
p694
tp695
Rp696
sba(i__main__
tree
p697
(dp698
g4
g13
(g17
S'\xb0\xca\xfd\xa1\xcb\x93\xef?'
p699
tp700
Rp701
sg5
I0
sg6
(lp702
sg24
I-1
sg25
I-1
sbasg24
I-1
sg25
g13
(g55
S'\x01\x00\x00\x00\x00\x00\x00\x00'
p703
tp704
Rp705
sba(i__main__
tree
p706
(dp707
g4
F0.0
sg5
I-1
sg6
(lp708
(i__main__
tree
p709
(dp710
g4
F0.0
sg5
I-1
sg6
(lp711
(i__main__
tree
p712
(dp713
g4
F0.0
sg5
I-1
sg6
(lp714
(i__main__
tree
p715
(dp716
g4
F0.0
sg5
I-1
sg6
(lp717
(i__main__
tree
p718
(dp719
g4
F0.0
sg5
I-1
sg6
(lp720
(i__main__
tree
p721
(dp722
g4
F0.0
sg5
I-1
sg6
(lp723
(i__main__
tree
p724
(dp725
g4
g13
(g17
S'\xb4\tq(\xa7\x15\xe9?'
p726
tp727
Rp728
sg5
I1
sg6
(lp729
sg24
I-1
sg25
I-1
sba(i__main__
tree
p730
(dp731
g4
g13
(g17
S'\x87\xc8F\xd2\x03\x80\xeb?'
p732
tp733
Rp734
sg5
I1
sg6
(lp735
sg24
I-1
sg25
I-1
sbasg24
I-1
sg25
g13
(g55
S'\x10\x00\x00\x00\x00\x00\x00\x00'
p736
tp737
Rp738
sba(i__main__
tree
p739
(dp740
g4
F0.0
sg5
I-1
sg6
(lp741
(i__main__
tree
p742
(dp743
g4
g13
(g17
S'\x88o\x05m\xcfN\xcc?'
p744
tp745
Rp746
sg5
I0
sg6
(lp747
sg24
I-1
sg25
I-1
sba(i__main__
tree
p748
(dp749
g4
g13
(g17
S'\x1c\xa3\x87SO\x82\xe3?'
p750
tp751
Rp752
sg5
I1
sg6
(lp753
sg24
I-1
sg25
I-1
sbasg24
I-1
sg25
g13
(g55
S'\x10\x00\x00\x00\x00\x00\x00\x00'
p754
tp755
Rp756
sbasg24
I-1
sg25
g13
(g55
S'\x0b\x00\x00\x00\x00\x00\x00\x00'
p757
tp758
Rp759
sba(i__main__
tree
p760
(dp761
g4
g13
(g17
S"\xba\x10\xec\\'_\xea?"
p762
tp763
Rp764
sg5
I1
sg6
(lp765
sg24
I-1
sg25
I-1
sbasg24
I-1
sg25
g13
(g55
S'\x00\x00\x00\x00\x00\x00\x00\x00'
p766
tp767
Rp768
sba(i__main__
tree
p769
(dp770
g4
F0.0
sg5
I-1
sg6
(lp771
(i__main__
tree
p772
(dp773
g4
F0.0
sg5
I-1
sg6
(lp774
(i__main__
tree
p775
(dp776
g4
F0.0
sg5
I-1
sg6
(lp777
(i__main__
tree
p778
(dp779
g4
g13
(g17
S'\x1eV\x0b\xb5\x02p\xca?'
p780
tp781
Rp782
sg5
I1
sg6
(lp783
sg24
I-1
sg25
I-1
sba(i__main__
tree
p784
(dp785
g4
g13
(g17
S'\xda\xa0.\rl\xe9\xc5?'
p786
tp787
Rp788
sg5
I0
sg6
(lp789
sg24
I-1
sg25
I-1
sbasg24
I-1
sg25
g13
(g55
S'\x0b\x00\x00\x00\x00\x00\x00\x00'
p790
tp791
Rp792
sba(i__main__
tree
p793
(dp794
g4
F0.0
sg5
I-1
sg6
(lp795
(i__main__
tree
p796
(dp797
g4
g13
(g17
S'\x02\x1cs\xc5\x9f\xa7\xd8?'
p798
tp799
Rp800
sg5
I1
sg6
(lp801
sg24
I-1
sg25
I-1
sba(i__main__
tree
p802
(dp803
g4
g13
(g17
S'?\xd8\xfd\xccH\x10\xdc?'
p804
tp805
Rp806
sg5
I1
sg6
(lp807
sg24
I-1
sg25
I-1
sbasg24
I-1
sg25
g13
(g55
S'\x0b\x00\x00\x00\x00\x00\x00\x00'
p808
tp809
Rp810
sbasg24
I-1
sg25
g13
(g55
S'\x10\x00\x00\x00\x00\x00\x00\x00'
p811
tp812
Rp813
sba(i__main__
tree
p814
(dp815
g4
F0.0
sg5
I-1
sg6
(lp816
(i__main__
tree
p817
(dp818
g4
g13
(g17
S'\xd9\xa0.\rl\xe9\xd5?'
p819
tp820
Rp821
sg5
I0
sg6
(lp822
sg24
I-1
sg25
I-1
sba(i__main__
tree
p823
(dp824
g4
F0.0
sg5
I-1
sg6
(lp825
(i__main__
tree
p826
(dp827
g4
g13
(g17
S')\x90\xfe\xdd\x85\xb5\xd2?'
p828
tp829
Rp830
sg5
I1
sg6
(lp831
sg24
I-1
sg25
I-1
sba(i__main__
tree
p832
(dp833
g4
g13
(g17
S'\xda\xa0.\rl\xe9\xc5?'
p834
tp835
Rp836
sg5
I0
sg6
(lp837
sg24
I-1
sg25
I-1
sbasg24
I-1
sg25
g13
(g55
S'\x0b\x00\x00\x00\x00\x00\x00\x00'
p838
tp839
Rp840
sbasg24
I-1
sg25
g13
(g55
S'\x10\x00\x00\x00\x00\x00\x00\x00'
p841
tp842
Rp843
sbasg24
I-1
sg25
g13
(g55
S'\x00\x00\x00\x00\x00\x00\x00\x00'
p844
tp845
Rp846
sbasg24
I-1
sg25
g13
(g55
S'\x01\x00\x00\x00\x00\x00\x00\x00'
p847
tp848
Rp849
sba(i__main__
tree
p850
(dp851
g4
F0.0
sg5
I-1
sg6
(lp852
(i__main__
tree
p853
(dp854
g4
F0.0
sg5
I-1
sg6
(lp855
(i__main__
tree
p856
(dp857
g4
F0.0
sg5
I-1
sg6
(lp858
(i__main__
tree
p859
(dp860
g4
g13
(g17
S')\x90\xfe\xdd\x85\xb5\xd2?'
p861
tp862
Rp863
sg5
I1
sg6
(lp864
sg24
I-1
sg25
I-1
sba(i__main__
tree
p865
(dp866
g4
F0.0
sg5
I-1
sg6
(lp867
(i__main__
tree
p868
(dp869
g4
g13
(g17
S'\xb6\x10\x9d\x0cM%\xe0?'
p870
tp871
Rp872
sg5
I1
sg6
(lp873
sg24
I-1
sg25
I-1
sba(i__main__
tree
p874
(dp875
g4
g13
(g17
S'\x02\x1cs\xc5\x9f\xa7\xd8?'
p876
tp877
Rp878
sg5
I1
sg6
(lp879
sg24
I-1
sg25
I-1
sbasg24
I-1
sg25
g13
(g55
S'\x01\x00\x00\x00\x00\x00\x00\x00'
p880
tp881
Rp882
sbasg24
I-1
sg25
g13
(g55
S'\x10\x00\x00\x00\x00\x00\x00\x00'
p883
tp884
Rp885
sba(i__main__
tree
p886
(dp887
g4
F0.0
sg5
I-1
sg6
(lp888
(i__main__
tree
p889
(dp890
g4
g13
(g17
S'\x1eV\x0b\xb5\x02p\xca?'
p891
tp892
Rp893
sg5
I0
sg6
(lp894
sg24
I-1
sg25
I-1
sba(i__main__
tree
p895
(dp896
g4
F0.0
sg5
I-1
sg6
(lp897
(i__main__
tree
p898
(dp899
g4
g13
(g17
S'\xc8\xe1\x1er7\xfa\xdb?'
p900
tp901
Rp902
sg5
I0
sg6
(lp903
sg24
I-1
sg25
I-1
sba(i__main__
tree
p904
(dp905
g4
g13
(g17
S')\x90\xfe\xdd\x85\xb5\xd2?'
p906
tp907
Rp908
sg5
I0
sg6
(lp909
sg24
I-1
sg25
I-1
sbasg24
I-1
sg25
g13
(g55
S'\x01\x00\x00\x00\x00\x00\x00\x00'
p910
tp911
Rp912
sbasg24
I-1
sg25
g13
(g55
S'\x10\x00\x00\x00\x00\x00\x00\x00'
p913
tp914
Rp915
sbasg24
I-1
sg25
g13
(g55
S'\x00\x00\x00\x00\x00\x00\x00\x00'
p916
tp917
Rp918
sba(i__main__
tree
p919
(dp920
g4
g13
(g17
S'\x1c\xa3\x87SO\x82\xe3?'
p921
tp922
Rp923
sg5
I0
sg6
(lp924
sg24
I-1
sg25
I-1
sbasg24
I-1
sg25
g13
(g55
S'\x0b\x00\x00\x00\x00\x00\x00\x00'
p925
tp926
Rp927
sbasg24
I-1
sg25
g13
(g55
S'\x03\x00\x00\x00\x00\x00\x00\x00'
p928
tp929
Rp930
sba(i__main__
tree
p931
(dp932
g4
F0.0
sg5
I-1
sg6
(lp933
(i__main__
tree
p934
(dp935
g4
F0.0
sg5
I-1
sg6
(lp936
(i__main__
tree
p937
(dp938
g4
F0.0
sg5
I-1
sg6
(lp939
(i__main__
tree
p940
(dp941
g4
F0.0
sg5
I-1
sg6
(lp942
(i__main__
tree
p943
(dp944
g4
F0.0
sg5
I-1
sg6
(lp945
(i__main__
tree
p946
(dp947
g4
g13
(g17
S'\xa0\x11\x8b\xdcP\xaf\xd1?'
p948
tp949
Rp950
sg5
I1
sg6
(lp951
sg24
I-1
sg25
I-1
sba(i__main__
tree
p952
(dp953
g4
g13
(g17
S'\xd9\xa0.\rl\xe9\xd5?'
p954
tp955
Rp956
sg5
I1
sg6
(lp957
sg24
I-1
sg25
I-1
sbasg24
I-1
sg25
g13
(g55
S'\x01\x00\x00\x00\x00\x00\x00\x00'
p958
tp959
Rp960
sba(i__main__
tree
p961
(dp962
g4
g13
(g17
S'\x1e\x027\x96A\xa9\xe4?'
p963
tp964
Rp965
sg5
I0
sg6
(lp966
sg24
I-1
sg25
I-1
sbasg24
I-1
sg25
g13
(g55
S'\x03\x00\x00\x00\x00\x00\x00\x00'
p967
tp968
Rp969
sba(i__main__
tree
p970
(dp971
g4
g13
(g17
S'"Fz\x14d\x1e\xe7?'
p972
tp973
Rp974
sg5
I1
sg6
(lp975
sg24
I-1
sg25
I-1
sbasg24
I-1
sg25
g13
(g55
S'\x10\x00\x00\x00\x00\x00\x00\x00'
p976
tp977
Rp978
sba(i__main__
tree
p979
(dp980
g4
F0.0
sg5
I-1
sg6
(lp981
(i__main__
tree
p982
(dp983
g4
F0.0
sg5
I-1
sg6
(lp984
(i__main__
tree
p985
(dp986
g4
g13
(g17
S'\xd9\xa0.\rl\xe9\xd5?'
p987
tp988
Rp989
sg5
I0
sg6
(lp990
sg24
I-1
sg25
I-1
sba(i__main__
tree
p991
(dp992
g4
g13
(g17
S'\x1eV\x0b\xb5\x02p\xca?'
p993
tp994
Rp995
sg5
I1
sg6
(lp996
sg24
I-1
sg25
I-1
sbasg24
I-1
sg25
g13
(g55
S'\x03\x00\x00\x00\x00\x00\x00\x00'
p997
tp998
Rp999
sba(i__main__
tree
p1000
(dp1001
g4
F0.0
sg5
I-1
sg6
(lp1002
(i__main__
tree
p1003
(dp1004
g4
g13
(g17
S'\x1f?\xa1E\x8d\xce\xe4?'
p1005
tp1006
Rp1007
sg5
I0
sg6
(lp1008
sg24
I-1
sg25
I-1
sba(i__main__
tree
p1009
(dp1010
g4
g13
(g17
S'\x1e\x027\x96A\xa9\xe4?'
p1011
tp1012
Rp1013
sg5
I0
sg6
(lp1014
sg24
I-1
sg25
I-1
sbasg24
I-1
sg25
g13
(g55
S'\x03\x00\x00\x00\x00\x00\x00\x00'
p1015
tp1016
Rp1017
sbasg24
I-1
sg25
g13
(g55
S'\x01\x00\x00\x00\x00\x00\x00\x00'
p1018
tp1019
Rp1020
sbasg24
I-1
sg25
g13
(g55
S'\x00\x00\x00\x00\x00\x00\x00\x00'
p1021
tp1022
Rp1023
sba(i__main__
tree
p1024
(dp1025
g4
g13
(g17
S'H:^=k\xe1\xeb?'
p1026
tp1027
Rp1028
sg5
I0
sg6
(lp1029
sg24
I-1
sg25
I-1
sbasg24
I-1
sg25
g13
(g55
S'\x0b\x00\x00\x00\x00\x00\x00\x00'
p1030
tp1031
Rp1032
sbasg24
I-1
sg25
g13
(g55
S'\x18\x00\x00\x00\x00\x00\x00\x00'
p1033
tp1034
Rp1035
sbasg24
I-1
sg25
g13
(g55
S'\x08\x00\x00\x00\x00\x00\x00\x00'
p1036
tp1037
Rp1038
sba(i__main__
tree
p1039
(dp1040
g4
F0.0
sg5
I-1
sg6
(lp1041
(i__main__
tree
p1042
(dp1043
g4
g13
(g17
S'\x94d\xcfj1\x1b\xef?'
p1044
tp1045
Rp1046
sg5
I0
sg6
(lp1047
sg24
I-1
sg25
I-1
sba(i__main__
tree
p1048
(dp1049
g4
F0.0
sg5
I-1
sg6
(lp1050
(i__main__
tree
p1051
(dp1052
g4
F0.0
sg5
I-1
sg6
(lp1053
(i__main__
tree
p1054
(dp1055
g4
F0.0
sg5
I-1
sg6
(lp1056
(i__main__
tree
p1057
(dp1058
g4
g13
(g17
S'\x9a\x96\x07\x92(\xc2\xed?'
p1059
tp1060
Rp1061
sg5
I0
sg6
(lp1062
sg24
I-1
sg25
I-1
sba(i__main__
tree
p1063
(dp1064
g4
F0.0
sg5
I-1
sg6
(lp1065
(i__main__
tree
p1066
(dp1067
g4
F0.0
sg5
I-1
sg6
(lp1068
(i__main__
tree
p1069
(dp1070
g4
F0.0
sg5
I-1
sg6
(lp1071
(i__main__
tree
p1072
(dp1073
g4
g13
(g17
S'\\t|"c\x9e\xe5?'
p1074
tp1075
Rp1076
sg5
I0
sg6
(lp1077
sg24
I-1
sg25
I-1
sba(i__main__
tree
p1078
(dp1079
g4
g13
(g17
S',C!\xab;\xf4\xdc?'
p1080
tp1081
Rp1082
sg5
I0
sg6
(lp1083
sg24
I-1
sg25
I-1
sbasg24
I-1
sg25
g13
(g55
S'\x18\x00\x00\x00\x00\x00\x00\x00'
p1084
tp1085
Rp1086
sba(i__main__
tree
p1087
(dp1088
g4
g13
(g17
S'\\t|"c\x9e\xe5?'
p1089
tp1090
Rp1091
sg5
I0
sg6
(lp1092
sg24
I-1
sg25
I-1
sbasg24
I-1
sg25
g13
(g55
S'\x0f\x00\x00\x00\x00\x00\x00\x00'
p1093
tp1094
Rp1095
sba(i__main__
tree
p1096
(dp1097
g4
g13
(g17
S'?\xd8\xfd\xccH\x10\xdc?'
p1098
tp1099
Rp1100
sg5
I1
sg6
(lp1101
sg24
I-1
sg25
I-1
sbasg24
I-1
sg25
g13
(g55
S'\x01\x00\x00\x00\x00\x00\x00\x00'
p1102
tp1103
Rp1104
sbasg24
I-1
sg25
g13
(g55
S'\x03\x00\x00\x00\x00\x00\x00\x00'
p1105
tp1106
Rp1107
sba(i__main__
tree
p1108
(dp1109
g4
F0.0
sg5
I-1
sg6
(lp1110
(i__main__
tree
p1111
(dp1112
g4
F0.0
sg5
I-1
sg6
(lp1113
(i__main__
tree
p1114
(dp1115
g4
F0.0
sg5
I-1
sg6
(lp1116
(i__main__
tree
p1117
(dp1118
g4
F0.0
sg5
I-1
sg6
(lp1119
(i__main__
tree
p1120
(dp1121
g4
g13
(g17
S'\x96\xb2\x9b\xc5\xecA\xe0?'
p1122
tp1123
Rp1124
sg5
I0
sg6
(lp1125
sg24
I-1
sg25
I-1
sba(i__main__
tree
p1126
(dp1127
g4
g13
(g17
S'\xda\xa0.\rl\xe9\xc5?'
p1128
tp1129
Rp1130
sg5
I0
sg6
(lp1131
sg24
I-1
sg25
I-1
sbasg24
I-1
sg25
g13
(g55
S'\x18\x00\x00\x00\x00\x00\x00\x00'
p1132
tp1133
Rp1134
sba(i__main__
tree
p1135
(dp1136
g4
g13
(g17
S'N\xc3A1\xbdR\xe0?'
p1137
tp1138
Rp1139
sg5
I0
sg6
(lp1140
sg24
I-1
sg25
I-1
sbasg24
I-1
sg25
g13
(g55
S'\x01\x00\x00\x00\x00\x00\x00\x00'
p1141
tp1142
Rp1143
sba(i__main__
tree
p1144
(dp1145
g4
F0.0
sg5
I-1
sg6
(lp1146
(i__main__
tree
p1147
(dp1148
g4
g13
(g17
S'\x1eV\x0b\xb5\x02p\xca?'
p1149
tp1150
Rp1151
sg5
I0
sg6
(lp1152
sg24
I-1
sg25
I-1
sba(i__main__
tree
p1153
(dp1154
g4
g13
(g17
S'\xd9\xa0.\rl\xe9\xd5?'
p1155
tp1156
Rp1157
sg5
I1
sg6
(lp1158
sg24
I-1
sg25
I-1
sbasg24
I-1
sg25
g13
(g55
S'\x01\x00\x00\x00\x00\x00\x00\x00'
p1159
tp1160
Rp1161
sbasg24
I-1
sg25
g13
(g55
S'\x0f\x00\x00\x00\x00\x00\x00\x00'
p1162
tp1163
Rp1164
sba(i__main__
tree
p1165
(dp1166
g4
F0.0
sg5
I-1
sg6
(lp1167
(i__main__
tree
p1168
(dp1169
g4
F0.0
sg5
I-1
sg6
(lp1170
(i__main__
tree
p1171
(dp1172
g4
g13
(g17
S')\x90\xfe\xdd\x85\xb5\xd2?'
p1173
tp1174
Rp1175
sg5
I0
sg6
(lp1176
sg24
I-1
sg25
I-1
sba(i__main__
tree
p1177
(dp1178
g4
g13
(g17
S'\xd9\xa0.\rl\xe9\xd5?'
p1179
tp1180
Rp1181
sg5
I1
sg6
(lp1182
sg24
I-1
sg25
I-1
sbasg24
I-1
sg25
g13
(g55
S'\x0f\x00\x00\x00\x00\x00\x00\x00'
p1183
tp1184
Rp1185
sba(i__main__
tree
p1186
(dp1187
g4
F0.0
sg5
I-1
sg6
(lp1188
(i__main__
tree
p1189
(dp1190
g4
F0.0
sg5
I-1
sg6
(lp1191
(i__main__
tree
p1192
(dp1193
g4
g13
(g17
S'\x1f?\xa1E\x8d\xce\xe4?'
p1194
tp1195
Rp1196
sg5
I1
sg6
(lp1197
sg24
I-1
sg25
I-1
sba(i__main__
tree
p1198
(dp1199
g4
g13
(g17
S'\x1eV\x0b\xb5\x02p\xca?'
p1200
tp1201
Rp1202
sg5
I1
sg6
(lp1203
sg24
I-1
sg25
I-1
sbasg24
I-1
sg25
g13
(g55
S'\x0f\x00\x00\x00\x00\x00\x00\x00'
p1204
tp1205
Rp1206
sba(i__main__
tree
p1207
(dp1208
g4
g13
(g17
S'\xd9\xa0.\rl\xe9\xd5?'
p1209
tp1210
Rp1211
sg5
I1
sg6
(lp1212
sg24
I-1
sg25
I-1
sbasg24
I-1
sg25
g13
(g55
S'\x01\x00\x00\x00\x00\x00\x00\x00'
p1213
tp1214
Rp1215
sbasg24
I-1
sg25
g13
(g55
S'\x18\x00\x00\x00\x00\x00\x00\x00'
p1216
tp1217
Rp1218
sbasg24
I-1
sg25
g13
(g55
S'\x03\x00\x00\x00\x00\x00\x00\x00'
p1219
tp1220
Rp1221
sbasg24
I-1
sg25
g13
(g55
S'\x04\x00\x00\x00\x00\x00\x00\x00'
p1222
tp1223
Rp1224
sba(i__main__
tree
p1225
(dp1226
g4
F0.0
sg5
I-1
sg6
(lp1227
(i__main__
tree
p1228
(dp1229
g4
F0.0
sg5
I-1
sg6
(lp1230
(i__main__
tree
p1231
(dp1232
g4
F0.0
sg5
I-1
sg6
(lp1233
(i__main__
tree
p1234
(dp1235
g4
g13
(g17
S'\x1c\xa3\x87SO\x82\xe3?'
p1236
tp1237
Rp1238
sg5
I0
sg6
(lp1239
sg24
I-1
sg25
I-1
sba(i__main__
tree
p1240
(dp1241
g4
F0.0
sg5
I-1
sg6
(lp1242
(i__main__
tree
p1243
(dp1244
g4
g13
(g17
S'D\xb2N\xbf^4\xc3?'
p1245
tp1246
Rp1247
sg5
I0
sg6
(lp1248
sg24
I-1
sg25
I-1
sba(i__main__
tree
p1249
(dp1250
g4
g13
(g17
S'\x1eV\x0b\xb5\x02p\xca?'
p1251
tp1252
Rp1253
sg5
I0
sg6
(lp1254
sg24
I-1
sg25
I-1
sbasg24
I-1
sg25
g13
(g55
S'\x0f\x00\x00\x00\x00\x00\x00\x00'
p1255
tp1256
Rp1257
sbasg24
I-1
sg25
g13
(g55
S'\x03\x00\x00\x00\x00\x00\x00\x00'
p1258
tp1259
Rp1260
sba(i__main__
tree
p1261
(dp1262
g4
F0.0
sg5
I-1
sg6
(lp1263
(i__main__
tree
p1264
(dp1265
g4
F0.0
sg5
I-1
sg6
(lp1266
(i__main__
tree
p1267
(dp1268
g4
F0.0
sg5
I-1
sg6
(lp1269
(i__main__
tree
p1270
(dp1271
g4
g13
(g17
S'\xda\xa0.\rl\xe9\xc5?'
p1272
tp1273
Rp1274
sg5
I0
sg6
(lp1275
sg24
I-1
sg25
I-1
sba(i__main__
tree
p1276
(dp1277
g4
g13
(g17
S'\xda\xa0.\rl\xe9\xc5?'
p1278
tp1279
Rp1280
sg5
I0
sg6
(lp1281
sg24
I-1
sg25
I-1
sbasg24
I-1
sg25
g13
(g55
S'\x0f\x00\x00\x00\x00\x00\x00\x00'
p1282
tp1283
Rp1284
sba(i__main__
tree
p1285
(dp1286
g4
F0.0
sg5
I-1
sg6
(lp1287
(i__main__
tree
p1288
(dp1289
g4
g13
(g17
S'\xda\xa0.\rl\xe9\xc5?'
p1290
tp1291
Rp1292
sg5
I0
sg6
(lp1293
sg24
I-1
sg25
I-1
sba(i__main__
tree
p1294
(dp1295
g4
g13
(g17
S'?\xd8\xfd\xccH\x10\xdc?'
p1296
tp1297
Rp1298
sg5
I1
sg6
(lp1299
sg24
I-1
sg25
I-1
sbasg24
I-1
sg25
g13
(g55
S'\x0f\x00\x00\x00\x00\x00\x00\x00'
p1300
tp1301
Rp1302
sbasg24
I-1
sg25
g13
(g55
S'\x04\x00\x00\x00\x00\x00\x00\x00'
p1303
tp1304
Rp1305
sba(i__main__
tree
p1306
(dp1307
g4
g13
(g17
S'N\xc3A1\xbdR\xe0?'
p1308
tp1309
Rp1310
sg5
I1
sg6
(lp1311
sg24
I-1
sg25
I-1
sbasg24
I-1
sg25
g13
(g55
S'\x03\x00\x00\x00\x00\x00\x00\x00'
p1312
tp1313
Rp1314
sbasg24
I-1
sg25
g13
(g55
S'\x01\x00\x00\x00\x00\x00\x00\x00'
p1315
tp1316
Rp1317
sba(i__main__
tree
p1318
(dp1319
g4
F0.0
sg5
I-1
sg6
(lp1320
(i__main__
tree
p1321
(dp1322
g4
F0.0
sg5
I-1
sg6
(lp1323
(i__main__
tree
p1324
(dp1325
g4
F0.0
sg5
I-1
sg6
(lp1326
(i__main__
tree
p1327
(dp1328
g4
F0.0
sg5
I-1
sg6
(lp1329
(i__main__
tree
p1330
(dp1331
g4
g13
(g17
S'\xda\xa0.\rl\xe9\xc5?'
p1332
tp1333
Rp1334
sg5
I0
sg6
(lp1335
sg24
I-1
sg25
I-1
sba(i__main__
tree
p1336
(dp1337
g4
g13
(g17
S'\n#)\ro=\xe8?'
p1338
tp1339
Rp1340
sg5
I1
sg6
(lp1341
sg24
I-1
sg25
I-1
sbasg24
I-1
sg25
g13
(g55
S'\x03\x00\x00\x00\x00\x00\x00\x00'
p1342
tp1343
Rp1344
sba(i__main__
tree
p1345
(dp1346
g4
g13
(g17
S'\xd9\xa0.\rl\xe9\xd5?'
p1347
tp1348
Rp1349
sg5
I0
sg6
(lp1350
sg24
I-1
sg25
I-1
sbasg24
I-1
sg25
g13
(g55
S'\x0f\x00\x00\x00\x00\x00\x00\x00'
p1351
tp1352
Rp1353
sba(i__main__
tree
p1354
(dp1355
g4
F0.0
sg5
I-1
sg6
(lp1356
(i__main__
tree
p1357
(dp1358
g4
F0.0
sg5
I-1
sg6
(lp1359
(i__main__
tree
p1360
(dp1361
g4
g13
(g17
S'?\xd8\xfd\xccH\x10\xdc?'
p1362
tp1363
Rp1364
sg5
I1
sg6
(lp1365
sg24
I-1
sg25
I-1
sba(i__main__
tree
p1366
(dp1367
g4
g13
(g17
S',\x9b\xd8\xc0k\x80\xe9?'
p1368
tp1369
Rp1370
sg5
I1
sg6
(lp1371
sg24
I-1
sg25
I-1
sbasg24
I-1
sg25
g13
(g55
S'\x03\x00\x00\x00\x00\x00\x00\x00'
p1372
tp1373
Rp1374
sba(i__main__
tree
p1375
(dp1376
g4
g13
(g17
S'\x1e\x027\x96A\xa9\xe4?'
p1377
tp1378
Rp1379
sg5
I1
sg6
(lp1380
sg24
I-1
sg25
I-1
sbasg24
I-1
sg25
g13
(g55
S'\x0f\x00\x00\x00\x00\x00\x00\x00'
p1381
tp1382
Rp1383
sbasg24
I-1
sg25
g13
(g55
S'\x01\x00\x00\x00\x00\x00\x00\x00'
p1384
tp1385
Rp1386
sba(i__main__
tree
p1387
(dp1388
g4
F0.0
sg5
I-1
sg6
(lp1389
(i__main__
tree
p1390
(dp1391
g4
F0.0
sg5
I-1
sg6
(lp1392
(i__main__
tree
p1393
(dp1394
g4
F0.0
sg5
I-1
sg6
(lp1395
(i__main__
tree
p1396
(dp1397
g4
g13
(g17
S'N\xc3A1\xbdR\xe0?'
p1398
tp1399
Rp1400
sg5
I0
sg6
(lp1401
sg24
I-1
sg25
I-1
sba(i__main__
tree
p1402
(dp1403
g4
g13
(g17
S'\x8a\x85\x92XX\x97\xe0?'
p1404
tp1405
Rp1406
sg5
I0
sg6
(lp1407
sg24
I-1
sg25
I-1
sbasg24
I-1
sg25
g13
(g55
S'\x01\x00\x00\x00\x00\x00\x00\x00'
p1408
tp1409
Rp1410
sba(i__main__
tree
p1411
(dp1412
g4
F0.0
sg5
I-1
sg6
(lp1413
(i__main__
tree
p1414
(dp1415
g4
g13
(g17
S'\xd9\xa0.\rl\xe9\xd5?'
p1416
tp1417
Rp1418
sg5
I1
sg6
(lp1419
sg24
I-1
sg25
I-1
sba(i__main__
tree
p1420
(dp1421
g4
g13
(g17
S'\xda\xa0.\rl\xe9\xc5?'
p1422
tp1423
Rp1424
sg5
I0
sg6
(lp1425
sg24
I-1
sg25
I-1
sbasg24
I-1
sg25
g13
(g55
S'\x01\x00\x00\x00\x00\x00\x00\x00'
p1426
tp1427
Rp1428
sbasg24
I-1
sg25
g13
(g55
S'\x03\x00\x00\x00\x00\x00\x00\x00'
p1429
tp1430
Rp1431
sba(i__main__
tree
p1432
(dp1433
g4
F0.0
sg5
I-1
sg6
(lp1434
(i__main__
tree
p1435
(dp1436
g4
g13
(g17
S'|\x94\xd8`.>\xeb?'
p1437
tp1438
Rp1439
sg5
I1
sg6
(lp1440
sg24
I-1
sg25
I-1
sba(i__main__
tree
p1441
(dp1442
g4
F0.0
sg5
I-1
sg6
(lp1443
(i__main__
tree
p1444
(dp1445
g4
g13
(g17
S'\x1eV\x0b\xb5\x02p\xca?'
p1446
tp1447
Rp1448
sg5
I1
sg6
(lp1449
sg24
I-1
sg25
I-1
sba(i__main__
tree
p1450
(dp1451
g4
g13
(g17
S'\xda\xa0.\rl\xe9\xc5?'
p1452
tp1453
Rp1454
sg5
I0
sg6
(lp1455
sg24
I-1
sg25
I-1
sbasg24
I-1
sg25
g13
(g55
S'\x01\x00\x00\x00\x00\x00\x00\x00'
p1456
tp1457
Rp1458
sbasg24
I-1
sg25
g13
(g55
S'\x03\x00\x00\x00\x00\x00\x00\x00'
p1459
tp1460
Rp1461
sbasg24
I-1
sg25
g13
(g55
S'\x0f\x00\x00\x00\x00\x00\x00\x00'
p1462
tp1463
Rp1464
sbasg24
I-1
sg25
g13
(g55
S'\x04\x00\x00\x00\x00\x00\x00\x00'
p1465
tp1466
Rp1467
sbasg24
I-1
sg25
g13
(g55
S'\x18\x00\x00\x00\x00\x00\x00\x00'
p1468
tp1469
Rp1470
sbasg24
I-1
sg25
g13
(g55
S'\x00\x00\x00\x00\x00\x00\x00\x00'
p1471
tp1472
Rp1473
sbasg24
I-1
sg25
g13
(g55
S'\x13\x00\x00\x00\x00\x00\x00\x00'
p1474
tp1475
Rp1476
sba(i__main__
tree
p1477
(dp1478
g4
F0.0
sg5
I-1
sg6
(lp1479
(i__main__
tree
p1480
(dp1481
g4
F0.0
sg5
I-1
sg6
(lp1482
(i__main__
tree
p1483
(dp1484
g4
g13
(g17
S'\xee\x06\x873V\xa8\xef?'
p1485
tp1486
Rp1487
sg5
I0
sg6
(lp1488
sg24
I-1
sg25
I-1
sba(i__main__
tree
p1489
(dp1490
g4
F0.0
sg5
I-1
sg6
(lp1491
(i__main__
tree
p1492
(dp1493
g4
F0.0
sg5
I-1
sg6
(lp1494
(i__main__
tree
p1495
(dp1496
g4
F0.0
sg5
I-1
sg6
(lp1497
(i__main__
tree
p1498
(dp1499
g4
F0.0
sg5
I-1
sg6
(lp1500
(i__main__
tree
p1501
(dp1502
g4
F0.0
sg5
I-1
sg6
(lp1503
(i__main__
tree
p1504
(dp1505
g4
g13
(g17
S'\x18\xb9\xc8\x83\x97\xa7\xd9?'
p1506
tp1507
Rp1508
sg5
I0
sg6
(lp1509
sg24
I-1
sg25
I-1
sba(i__main__
tree
p1510
(dp1511
g4
g13
(g17
S'\x1eV\x0b\xb5\x02p\xca?'
p1512
tp1513
Rp1514
sg5
I1
sg6
(lp1515
sg24
I-1
sg25
I-1
sbasg24
I-1
sg25
g13
(g55
S'\x00\x00\x00\x00\x00\x00\x00\x00'
p1516
tp1517
Rp1518
sba(i__main__
tree
p1519
(dp1520
g4
F0.0
sg5
I-1
sg6
(lp1521
(i__main__
tree
p1522
(dp1523
g4
g13
(g17
S'd\x8e|\x01\x02V\xe3?'
p1524
tp1525
Rp1526
sg5
I1
sg6
(lp1527
sg24
I-1
sg25
I-1
sba(i__main__
tree
p1528
(dp1529
g4
g13
(g17
S')\x90\xfe\xdd\x85\xb5\xd2?'
p1530
tp1531
Rp1532
sg5
I1
sg6
(lp1533
sg24
I-1
sg25
I-1
sbasg24
I-1
sg25
g13
(g55
S'\x00\x00\x00\x00\x00\x00\x00\x00'
p1534
tp1535
Rp1536
sbasg24
I-1
sg25
g13
(g55
S'\x18\x00\x00\x00\x00\x00\x00\x00'
p1537
tp1538
Rp1539
sba(i__main__
tree
p1540
(dp1541
g4
F0.0
sg5
I-1
sg6
(lp1542
(i__main__
tree
p1543
(dp1544
g4
F0.0
sg5
I-1
sg6
(lp1545
(i__main__
tree
p1546
(dp1547
g4
g13
(g17
S'\x1eV\x0b\xb5\x02p\xca?'
p1548
tp1549
Rp1550
sg5
I0
sg6
(lp1551
sg24
I-1
sg25
I-1
sba(i__main__
tree
p1552
(dp1553
g4
g13
(g17
S'\xf4\xa4\xe2\xc9\x1b|\xd8?'
p1554
tp1555
Rp1556
sg5
I0
sg6
(lp1557
sg24
I-1
sg25
I-1
sbasg24
I-1
sg25
g13
(g55
S'\x18\x00\x00\x00\x00\x00\x00\x00'
p1558
tp1559
Rp1560
sba(i__main__
tree
p1561
(dp1562
g4
g13
(g17
S'\x1eV\x0b\xb5\x02p\xca?'
p1563
tp1564
Rp1565
sg5
I0
sg6
(lp1566
sg24
I-1
sg25
I-1
sbasg24
I-1
sg25
g13
(g55
S'\x00\x00\x00\x00\x00\x00\x00\x00'
p1567
tp1568
Rp1569
sbasg24
I-1
sg25
g13
(g55
S'\x04\x00\x00\x00\x00\x00\x00\x00'
p1570
tp1571
Rp1572
sba(i__main__
tree
p1573
(dp1574
g4
F0.0
sg5
I-1
sg6
(lp1575
(i__main__
tree
p1576
(dp1577
g4
F0.0
sg5
I-1
sg6
(lp1578
(i__main__
tree
p1579
(dp1580
g4
g13
(g17
S'\xda\xa0.\rl\xe9\xc5?'
p1581
tp1582
Rp1583
sg5
I0
sg6
(lp1584
sg24
I-1
sg25
I-1
sba(i__main__
tree
p1585
(dp1586
g4
g13
(g17
S'\xd9\xa0.\rl\xe9\xd5?'
p1587
tp1588
Rp1589
sg5
I0
sg6
(lp1590
sg24
I-1
sg25
I-1
sbasg24
I-1
sg25
g13
(g55
S'\x04\x00\x00\x00\x00\x00\x00\x00'
p1591
tp1592
Rp1593
sba(i__main__
tree
p1594
(dp1595
g4
g13
(g17
S'|\x94\xd8`.>\xeb?'
p1596
tp1597
Rp1598
sg5
I0
sg6
(lp1599
sg24
I-1
sg25
I-1
sbasg24
I-1
sg25
g13
(g55
S'\x00\x00\x00\x00\x00\x00\x00\x00'
p1600
tp1601
Rp1602
sbasg24
I-1
sg25
g13
(g55
S'\x01\x00\x00\x00\x00\x00\x00\x00'
p1603
tp1604
Rp1605
sba(i__main__
tree
p1606
(dp1607
g4
F0.0
sg5
I-1
sg6
(lp1608
(i__main__
tree
p1609
(dp1610
g4
g13
(g17
S'|\\!\xc4\x9c\x03\xec?'
p1611
tp1612
Rp1613
sg5
I0
sg6
(lp1614
sg24
I-1
sg25
I-1
sba(i__main__
tree
p1615
(dp1616
g4
F0.0
sg5
I-1
sg6
(lp1617
(i__main__
tree
p1618
(dp1619
g4
g13
(g17
S'\xf5Jx\xee\xa5\xb5\xe1?'
p1620
tp1621
Rp1622
sg5
I0
sg6
(lp1623
sg24
I-1
sg25
I-1
sba(i__main__
tree
p1624
(dp1625
g4
g13
(g17
S'N\xc3A1\xbdR\xe0?'
p1626
tp1627
Rp1628
sg5
I0
sg6
(lp1629
sg24
I-1
sg25
I-1
sbasg24
I-1
sg25
g13
(g55
S'\x00\x00\x00\x00\x00\x00\x00\x00'
p1630
tp1631
Rp1632
sbasg24
I-1
sg25
g13
(g55
S'\x18\x00\x00\x00\x00\x00\x00\x00'
p1633
tp1634
Rp1635
sbasg24
I-1
sg25
g13
(g55
S'\x10\x00\x00\x00\x00\x00\x00\x00'
p1636
tp1637
Rp1638
sbasg24
I-1
sg25
g13
(g55
S'\x05\x00\x00\x00\x00\x00\x00\x00'
p1639
tp1640
Rp1641
sba(i__main__
tree
p1642
(dp1643
g4
F0.0
sg5
I-1
sg6
(lp1644
(i__main__
tree
p1645
(dp1646
g4
F0.0
sg5
I-1
sg6
(lp1647
(i__main__
tree
p1648
(dp1649
g4
F0.0
sg5
I-1
sg6
(lp1650
(i__main__
tree
p1651
(dp1652
g4
F0.0
sg5
I-1
sg6
(lp1653
(i__main__
tree
p1654
(dp1655
g4
F0.0
sg5
I-1
sg6
(lp1656
(i__main__
tree
p1657
(dp1658
g4
g13
(g17
S'\xb2\xc4\x7f\xa9\x9e\x92\xd6?'
p1659
tp1660
Rp1661
sg5
I0
sg6
(lp1662
sg24
I-1
sg25
I-1
sba(i__main__
tree
p1663
(dp1664
g4
F0.0
sg5
I-1
sg6
(lp1665
(i__main__
tree
p1666
(dp1667
g4
g13
(g17
S"\x8f'b\x8a\x8a\xd9\xe3?"
p1668
tp1669
Rp1670
sg5
I1
sg6
(lp1671
sg24
I-1
sg25
I-1
sba(i__main__
tree
p1672
(dp1673
g4
g13
(g17
S'D\xb2N\xbf^4\xc3?'
p1674
tp1675
Rp1676
sg5
I0
sg6
(lp1677
sg24
I-1
sg25
I-1
sbasg24
I-1
sg25
g13
(g55
S'\x04\x00\x00\x00\x00\x00\x00\x00'
p1678
tp1679
Rp1680
sbasg24
I-1
sg25
g13
(g55
S'\x18\x00\x00\x00\x00\x00\x00\x00'
p1681
tp1682
Rp1683
sba(i__main__
tree
p1684
(dp1685
g4
F0.0
sg5
I-1
sg6
(lp1686
(i__main__
tree
p1687
(dp1688
g4
F0.0
sg5
I-1
sg6
(lp1689
(i__main__
tree
p1690
(dp1691
g4
g13
(g17
S'\x1eV\x0b\xb5\x02p\xca?'
p1692
tp1693
Rp1694
sg5
I0
sg6
(lp1695
sg24
I-1
sg25
I-1
sba(i__main__
tree
p1696
(dp1697
g4
g13
(g17
S'\x1eV\x0b\xb5\x02p\xca?'
p1698
tp1699
Rp1700
sg5
I1
sg6
(lp1701
sg24
I-1
sg25
I-1
sbasg24
I-1
sg25
g13
(g55
S'\x18\x00\x00\x00\x00\x00\x00\x00'
p1702
tp1703
Rp1704
sba(i__main__
tree
p1705
(dp1706
g4
g13
(g17
S'N\xc3A1\xbdR\xe0?'
p1707
tp1708
Rp1709
sg5
I0
sg6
(lp1710
sg24
I-1
sg25
I-1
sbasg24
I-1
sg25
g13
(g55
S'\x04\x00\x00\x00\x00\x00\x00\x00'
p1711
tp1712
Rp1713
sbasg24
I-1
sg25
g13
(g55
S'\x01\x00\x00\x00\x00\x00\x00\x00'
p1714
tp1715
Rp1716
sba(i__main__
tree
p1717
(dp1718
g4
F0.0
sg5
I-1
sg6
(lp1719
(i__main__
tree
p1720
(dp1721
g4
g13
(g17
S'\x08\x9aj\xc2\xa9\x95\xeb?'
p1722
tp1723
Rp1724
sg5
I0
sg6
(lp1725
sg24
I-1
sg25
I-1
sba(i__main__
tree
p1726
(dp1727
g4
F0.0
sg5
I-1
sg6
(lp1728
(i__main__
tree
p1729
(dp1730
g4
g13
(g17
S'.\x11\xbc\xd3o\x82\xcf?'
p1731
tp1732
Rp1733
sg5
I0
sg6
(lp1734
sg24
I-1
sg25
I-1
sba(i__main__
tree
p1735
(dp1736
g4
g13
(g17
S'\x1eV\x0b\xb5\x02p\xca?'
p1737
tp1738
Rp1739
sg5
I0
sg6
(lp1740
sg24
I-1
sg25
I-1
sbasg24
I-1
sg25
g13
(g55
S'\x04\x00\x00\x00\x00\x00\x00\x00'
p1741
tp1742
Rp1743
sbasg24
I-1
sg25
g13
(g55
S'\x18\x00\x00\x00\x00\x00\x00\x00'
p1744
tp1745
Rp1746
sbasg24
I-1
sg25
g13
(g55
S'\x10\x00\x00\x00\x00\x00\x00\x00'
p1747
tp1748
Rp1749
sba(i__main__
tree
p1750
(dp1751
g4
F0.0
sg5
I-1
sg6
(lp1752
(i__main__
tree
p1753
(dp1754
g4
F0.0
sg5
I-1
sg6
(lp1755
(i__main__
tree
p1756
(dp1757
g4
g13
(g17
S'\\t|"c\x9e\xe5?'
p1758
tp1759
Rp1760
sg5
I0
sg6
(lp1761
sg24
I-1
sg25
I-1
sba(i__main__
tree
p1762
(dp1763
g4
F0.0
sg5
I-1
sg6
(lp1764
(i__main__
tree
p1765
(dp1766
g4
F0.0
sg5
I-1
sg6
(lp1767
(i__main__
tree
p1768
(dp1769
g4
g13
(g17
S'\xf4\xa4\xe2\xc9\x1b|\xd8?'
p1770
tp1771
Rp1772
sg5
I0
sg6
(lp1773
sg24
I-1
sg25
I-1
sba(i__main__
tree
p1774
(dp1775
g4
g13
(g17
S'\x1eV\x0b\xb5\x02p\xca?'
p1776
tp1777
Rp1778
sg5
I0
sg6
(lp1779
sg24
I-1
sg25
I-1
sbasg24
I-1
sg25
g13
(g55
S'\x10\x00\x00\x00\x00\x00\x00\x00'
p1780
tp1781
Rp1782
sba(i__main__
tree
p1783
(dp1784
g4
g13
(g17
S'?\xd8\xfd\xccH\x10\xdc?'
p1785
tp1786
Rp1787
sg5
I0
sg6
(lp1788
sg24
I-1
sg25
I-1
sbasg24
I-1
sg25
g13
(g55
S'\x04\x00\x00\x00\x00\x00\x00\x00'
p1789
tp1790
Rp1791
sbasg24
I-1
sg25
g13
(g55
S'\x18\x00\x00\x00\x00\x00\x00\x00'
p1792
tp1793
Rp1794
sba(i__main__
tree
p1795
(dp1796
g4
g13
(g17
S'\x0c\xe8\xbdy\xa8#\xec?'
p1797
tp1798
Rp1799
sg5
I0
sg6
(lp1800
sg24
I-1
sg25
I-1
sbasg24
I-1
sg25
g13
(g55
S'\x01\x00\x00\x00\x00\x00\x00\x00'
p1801
tp1802
Rp1803
sbasg24
I-1
sg25
g13
(g55
S'\x00\x00\x00\x00\x00\x00\x00\x00'
p1804
tp1805
Rp1806
sba(i__main__
tree
p1807
(dp1808
g4
F0.0
sg5
I-1
sg6
(lp1809
(i__main__
tree
p1810
(dp1811
g4
F0.0
sg5
I-1
sg6
(lp1812
(i__main__
tree
p1813
(dp1814
g4
F0.0
sg5
I-1
sg6
(lp1815
(i__main__
tree
p1816
(dp1817
g4
F0.0
sg5
I-1
sg6
(lp1818
(i__main__
tree
p1819
(dp1820
g4
F0.0
sg5
I-1
sg6
(lp1821
(i__main__
tree
p1822
(dp1823
g4
g13
(g17
S'\x18T\xfc\xe1\xd4\r\xe8?'
p1824
tp1825
Rp1826
sg5
I1
sg6
(lp1827
sg24
I-1
sg25
I-1
sba(i__main__
tree
p1828
(dp1829
g4
g13
(g17
S'?\xd8\xfd\xccH\x10\xdc?'
p1830
tp1831
Rp1832
sg5
I1
sg6
(lp1833
sg24
I-1
sg25
I-1
sbasg24
I-1
sg25
g13
(g55
S'\x04\x00\x00\x00\x00\x00\x00\x00'
p1834
tp1835
Rp1836
sba(i__main__
tree
p1837
(dp1838
g4
g13
(g17
S'N\xc3A1\xbdR\xe0?'
p1839
tp1840
Rp1841
sg5
I1
sg6
(lp1842
sg24
I-1
sg25
I-1
sbasg24
I-1
sg25
g13
(g55
S'\x01\x00\x00\x00\x00\x00\x00\x00'
p1843
tp1844
Rp1845
sba(i__main__
tree
p1846
(dp1847
g4
F0.0
sg5
I-1
sg6
(lp1848
(i__main__
tree
p1849
(dp1850
g4
F0.0
sg5
I-1
sg6
(lp1851
(i__main__
tree
p1852
(dp1853
g4
g13
(g17
S'\xf4\xa4\xe2\xc9\x1b|\xd8?'
p1854
tp1855
Rp1856
sg5
I1
sg6
(lp1857
sg24
I-1
sg25
I-1
sba(i__main__
tree
p1858
(dp1859
g4
g13
(g17
S'\x1eV\x0b\xb5\x02p\xca?'
p1860
tp1861
Rp1862
sg5
I1
sg6
(lp1863
sg24
I-1
sg25
I-1
sbasg24
I-1
sg25
g13
(g55
S'\x04\x00\x00\x00\x00\x00\x00\x00'
p1864
tp1865
Rp1866
sba(i__main__
tree
p1867
(dp1868
g4
F0.0
sg5
I-1
sg6
(lp1869
(i__main__
tree
p1870
(dp1871
g4
g13
(g17
S'\x1eV\x0b\xb5\x02p\xca?'
p1872
tp1873
Rp1874
sg5
I1
sg6
(lp1875
sg24
I-1
sg25
I-1
sba(i__main__
tree
p1876
(dp1877
g4
g13
(g17
S'\x1eV\x0b\xb5\x02p\xca?'
p1878
tp1879
Rp1880
sg5
I0
sg6
(lp1881
sg24
I-1
sg25
I-1
sbasg24
I-1
sg25
g13
(g55
S'\x04\x00\x00\x00\x00\x00\x00\x00'
p1882
tp1883
Rp1884
sbasg24
I-1
sg25
g13
(g55
S'\x01\x00\x00\x00\x00\x00\x00\x00'
p1885
tp1886
Rp1887
sbasg24
I-1
sg25
g13
(g55
S'\x10\x00\x00\x00\x00\x00\x00\x00'
p1888
tp1889
Rp1890
sba(i__main__
tree
p1891
(dp1892
g4
F0.0
sg5
I-1
sg6
(lp1893
(i__main__
tree
p1894
(dp1895
g4
F0.0
sg5
I-1
sg6
(lp1896
(i__main__
tree
p1897
(dp1898
g4
g13
(g17
S'\x1eV\x0b\xb5\x02p\xca?'
p1899
tp1900
Rp1901
sg5
I1
sg6
(lp1902
sg24
I-1
sg25
I-1
sba(i__main__
tree
p1903
(dp1904
g4
g13
(g17
S'\x1eV\x0b\xb5\x02p\xca?'
p1905
tp1906
Rp1907
sg5
I0
sg6
(lp1908
sg24
I-1
sg25
I-1
sbasg24
I-1
sg25
g13
(g55
S'\x10\x00\x00\x00\x00\x00\x00\x00'
p1909
tp1910
Rp1911
sba(i__main__
tree
p1912
(dp1913
g4
g13
(g17
S'\x1eV\x0b\xb5\x02p\xca?'
p1914
tp1915
Rp1916
sg5
I0
sg6
(lp1917
sg24
I-1
sg25
I-1
sbasg24
I-1
sg25
g13
(g55
S'\x01\x00\x00\x00\x00\x00\x00\x00'
p1918
tp1919
Rp1920
sbasg24
I-1
sg25
g13
(g55
S'\x00\x00\x00\x00\x00\x00\x00\x00'
p1921
tp1922
Rp1923
sba(i__main__
tree
p1924
(dp1925
g4
g13
(g17
S'\xb8\xa9\xd3\xaa\x0f\x7f\xee?'
p1926
tp1927
Rp1928
sg5
I1
sg6
(lp1929
sg24
I-1
sg25
I-1
sbasg24
I-1
sg25
g13
(g55
S'\x18\x00\x00\x00\x00\x00\x00\x00'
p1930
tp1931
Rp1932
sbasg24
I-1
sg25
g13
(g55
S'\x05\x00\x00\x00\x00\x00\x00\x00'
p1933
tp1934
Rp1935
sbasg24
I-1
sg25
g13
(g55
S'\x0b\x00\x00\x00\x00\x00\x00\x00'
p1936
tp1937
Rp1938
sba(i__main__
tree
p1939
(dp1940
g4
F0.0
sg5
I-1
sg6
(lp1941
(i__main__
tree
p1942
(dp1943
g4
F0.0
sg5
I-1
sg6
(lp1944
(i__main__
tree
p1945
(dp1946
g4
F0.0
sg5
I-1
sg6
(lp1947
(i__main__
tree
p1948
(dp1949
g4
F0.0
sg5
I-1
sg6
(lp1950
(i__main__
tree
p1951
(dp1952
g4
F0.0
sg5
I-1
sg6
(lp1953
(i__main__
tree
p1954
(dp1955
g4
F0.0
sg5
I-1
sg6
(lp1956
(i__main__
tree
p1957
(dp1958
g4
F0.0
sg5
I-1
sg6
(lp1959
(i__main__
tree
p1960
(dp1961
g4
g13
(g17
S'\xa4\x18\x94\xe1e\xad\xeb?'
p1962
tp1963
Rp1964
sg5
I0
sg6
(lp1965
sg24
I-1
sg25
I-1
sba(i__main__
tree
p1966
(dp1967
g4
g13
(g17
S'\x1e\x027\x96A\xa9\xe4?'
p1968
tp1969
Rp1970
sg5
I0
sg6
(lp1971
sg24
I-1
sg25
I-1
sbasg24
I-1
sg25
g13
(g55
S',\x00\x00\x00\x00\x00\x00\x00'
p1972
tp1973
Rp1974
sba(i__main__
tree
p1975
(dp1976
g4
F0.0
sg5
I-1
sg6
(lp1977
(i__main__
tree
p1978
(dp1979
g4
g13
(g17
S'\xdb\x90\xc2\xa0\xf9\xcc\xe6?'
p1980
tp1981
Rp1982
sg5
I0
sg6
(lp1983
sg24
I-1
sg25
I-1
sba(i__main__
tree
p1984
(dp1985
g4
g13
(g17
S'\x88o\x05m\xcfN\xcc?'
p1986
tp1987
Rp1988
sg5
I0
sg6
(lp1989
sg24
I-1
sg25
I-1
sbasg24
I-1
sg25
g13
(g55
S',\x00\x00\x00\x00\x00\x00\x00'
p1990
tp1991
Rp1992
sbasg24
I-1
sg25
g13
(g55
S'\x03\x00\x00\x00\x00\x00\x00\x00'
p1993
tp1994
Rp1995
sba(i__main__
tree
p1996
(dp1997
g4
F0.0
sg5
I-1
sg6
(lp1998
(i__main__
tree
p1999
(dp2000
g4
F0.0
sg5
I-1
sg6
(lp2001
(i__main__
tree
p2002
(dp2003
g4
g13
(g17
S'\xf5Jx\xee\xa5\xb5\xe1?'
p2004
tp2005
Rp2006
sg5
I0
sg6
(lp2007
sg24
I-1
sg25
I-1
sba(i__main__
tree
p2008
(dp2009
g4
g13
(g17
S'\xda\xa0.\rl\xe9\xc5?'
p2010
tp2011
Rp2012
sg5
I0
sg6
(lp2013
sg24
I-1
sg25
I-1
sbasg24
I-1
sg25
g13
(g55
S'\x03\x00\x00\x00\x00\x00\x00\x00'
p2014
tp2015
Rp2016
sba(i__main__
tree
p2017
(dp2018
g4
F0.0
sg5
I-1
sg6
(lp2019
(i__main__
tree
p2020
(dp2021
g4
g13
(g17
S'.\x11\xbc\xd3o\x82\xcf?'
p2022
tp2023
Rp2024
sg5
I1
sg6
(lp2025
sg24
I-1
sg25
I-1
sba(i__main__
tree
p2026
(dp2027
g4
g13
(g17
S'"Fz\x14d\x1e\xe7?'
p2028
tp2029
Rp2030
sg5
I1
sg6
(lp2031
sg24
I-1
sg25
I-1
sbasg24
I-1
sg25
g13
(g55
S'\x03\x00\x00\x00\x00\x00\x00\x00'
p2032
tp2033
Rp2034
sbasg24
I-1
sg25
g13
(g55
S',\x00\x00\x00\x00\x00\x00\x00'
p2035
tp2036
Rp2037
sbasg24
I-1
sg25
g13
(g55
S'\x0e\x00\x00\x00\x00\x00\x00\x00'
p2038
tp2039
Rp2040
sba(i__main__
tree
p2041
(dp2042
g4
F0.0
sg5
I-1
sg6
(lp2043
(i__main__
tree
p2044
(dp2045
g4
F0.0
sg5
I-1
sg6
(lp2046
(i__main__
tree
p2047
(dp2048
g4
F0.0
sg5
I-1
sg6
(lp2049
(i__main__
tree
p2050
(dp2051
g4
g13
(g17
S't\xc79ja\xbe\xdc?'
p2052
tp2053
Rp2054
sg5
I1
sg6
(lp2055
sg24
I-1
sg25
I-1
sba(i__main__
tree
p2056
(dp2057
g4
g13
(g17
S'\xe4\xff\xc2\xdd\xb2\x12\xda?'
p2058
tp2059
Rp2060
sg5
I0
sg6
(lp2061
sg24
I-1
sg25
I-1
sbasg24
I-1
sg25
g13
(g55
S'\x03\x00\x00\x00\x00\x00\x00\x00'
p2062
tp2063
Rp2064
sba(i__main__
tree
p2065
(dp2066
g4
F0.0
sg5
I-1
sg6
(lp2067
(i__main__
tree
p2068
(dp2069
g4
g13
(g17
S'.\x11\xbc\xd3o\x82\xcf?'
p2070
tp2071
Rp2072
sg5
I1
sg6
(lp2073
sg24
I-1
sg25
I-1
sba(i__main__
tree
p2074
(dp2075
g4
g13
(g17
S'\xc8\n\xbbvP8\xe6?'
p2076
tp2077
Rp2078
sg5
I1
sg6
(lp2079
sg24
I-1
sg25
I-1
sbasg24
I-1
sg25
g13
(g55
S'\x03\x00\x00\x00\x00\x00\x00\x00'
p2080
tp2081
Rp2082
sbasg24
I-1
sg25
g13
(g55
S'\x0e\x00\x00\x00\x00\x00\x00\x00'
p2083
tp2084
Rp2085
sba(i__main__
tree
p2086
(dp2087
g4
F0.0
sg5
I-1
sg6
(lp2088
(i__main__
tree
p2089
(dp2090
g4
F0.0
sg5
I-1
sg6
(lp2091
(i__main__
tree
p2092
(dp2093
g4
g13
(g17
S'\xc8\xe1\x1er7\xfa\xdb?'
p2094
tp2095
Rp2096
sg5
I1
sg6
(lp2097
sg24
I-1
sg25
I-1
sba(i__main__
tree
p2098
(dp2099
g4
g13
(g17
S'\xc8\xe1\x1er7\xfa\xdb?'
p2100
tp2101
Rp2102
sg5
I1
sg6
(lp2103
sg24
I-1
sg25
I-1
sbasg24
I-1
sg25
g13
(g55
S'\x0e\x00\x00\x00\x00\x00\x00\x00'
p2104
tp2105
Rp2106
sba(i__main__
tree
p2107
(dp2108
g4
F0.0
sg5
I-1
sg6
(lp2109
(i__main__
tree
p2110
(dp2111
g4
g13
(g17
S']\x8du\x9e#\xae\xe4?'
p2112
tp2113
Rp2114
sg5
I1
sg6
(lp2115
sg24
I-1
sg25
I-1
sba(i__main__
tree
p2116
(dp2117
g4
g13
(g17
S',C!\xab;\xf4\xdc?'
p2118
tp2119
Rp2120
sg5
I1
sg6
(lp2121
sg24
I-1
sg25
I-1
sbasg24
I-1
sg25
g13
(g55
S'\x0e\x00\x00\x00\x00\x00\x00\x00'
p2122
tp2123
Rp2124
sbasg24
I-1
sg25
g13
(g55
S'\x03\x00\x00\x00\x00\x00\x00\x00'
p2125
tp2126
Rp2127
sbasg24
I-1
sg25
g13
(g55
S',\x00\x00\x00\x00\x00\x00\x00'
p2128
tp2129
Rp2130
sbasg24
I-1
sg25
g13
(g55
S'\x10\x00\x00\x00\x00\x00\x00\x00'
p2131
tp2132
Rp2133
sba(i__main__
tree
p2134
(dp2135
g4
F0.0
sg5
I-1
sg6
(lp2136
(i__main__
tree
p2137
(dp2138
g4
F0.0
sg5
I-1
sg6
(lp2139
(i__main__
tree
p2140
(dp2141
g4
F0.0
sg5
I-1
sg6
(lp2142
(i__main__
tree
p2143
(dp2144
g4
F0.0
sg5
I-1
sg6
(lp2145
(i__main__
tree
p2146
(dp2147
g4
g13
(g17
S'\xe6c\xaa\xf5i\xef\xe3?'
p2148
tp2149
Rp2150
sg5
I0
sg6
(lp2151
sg24
I-1
sg25
I-1
sba(i__main__
tree
p2152
(dp2153
g4
g13
(g17
S'%\x874\x13\x1f\xc5\xde?'
p2154
tp2155
Rp2156
sg5
I0
sg6
(lp2157
sg24
I-1
sg25
I-1
sbasg24
I-1
sg25
g13
(g55
S'\x10\x00\x00\x00\x00\x00\x00\x00'
p2158
tp2159
Rp2160
sba(i__main__
tree
p2161
(dp2162
g4
g13
(g17
S'\x1c\xa3\x87SO\x82\xe3?'
p2163
tp2164
Rp2165
sg5
I0
sg6
(lp2166
sg24
I-1
sg25
I-1
sbasg24
I-1
sg25
g13
(g55
S',\x00\x00\x00\x00\x00\x00\x00'
p2167
tp2168
Rp2169
sba(i__main__
tree
p2170
(dp2171
g4
g13
(g17
S'\xe4\xe3\x14"\x80\xb7\xed?'
p2172
tp2173
Rp2174
sg5
I0
sg6
(lp2175
sg24
I-1
sg25
I-1
sbasg24
I-1
sg25
g13
(g55
S'\x03\x00\x00\x00\x00\x00\x00\x00'
p2176
tp2177
Rp2178
sba(i__main__
tree
p2179
(dp2180
g4
F0.0
sg5
I-1
sg6
(lp2181
(i__main__
tree
p2182
(dp2183
g4
F0.0
sg5
I-1
sg6
(lp2184
(i__main__
tree
p2185
(dp2186
g4
g13
(g17
S'?\xd8\xfd\xccH\x10\xdc?'
p2187
tp2188
Rp2189
sg5
I0
sg6
(lp2190
sg24
I-1
sg25
I-1
sba(i__main__
tree
p2191
(dp2192
g4
F0.0
sg5
I-1
sg6
(lp2193
(i__main__
tree
p2194
(dp2195
g4
g13
(g17
S'\x1eV\x0b\xb5\x02p\xca?'
p2196
tp2197
Rp2198
sg5
I0
sg6
(lp2199
sg24
I-1
sg25
I-1
sba(i__main__
tree
p2200
(dp2201
g4
g13
(g17
S'\xf4\xa4\xe2\xc9\x1b|\xd8?'
p2202
tp2203
Rp2204
sg5
I0
sg6
(lp2205
sg24
I-1
sg25
I-1
sbasg24
I-1
sg25
g13
(g55
S'\x10\x00\x00\x00\x00\x00\x00\x00'
p2206
tp2207
Rp2208
sbasg24
I-1
sg25
g13
(g55
S'\x03\x00\x00\x00\x00\x00\x00\x00'
p2209
tp2210
Rp2211
sba(i__main__
tree
p2212
(dp2213
g4
F0.0
sg5
I-1
sg6
(lp2214
(i__main__
tree
p2215
(dp2216
g4
g13
(g17
S'?\xd8\xfd\xccH\x10\xdc?'
p2217
tp2218
Rp2219
sg5
I1
sg6
(lp2220
sg24
I-1
sg25
I-1
sba(i__main__
tree
p2221
(dp2222
g4
g13
(g17
S'\xda\xa0.\rl\xe9\xc5?'
p2223
tp2224
Rp2225
sg5
I0
sg6
(lp2226
sg24
I-1
sg25
I-1
sbasg24
I-1
sg25
g13
(g55
S'\x10\x00\x00\x00\x00\x00\x00\x00'
p2227
tp2228
Rp2229
sbasg24
I-1
sg25
g13
(g55
S',\x00\x00\x00\x00\x00\x00\x00'
p2230
tp2231
Rp2232
sbasg24
I-1
sg25
g13
(g55
S'\x0e\x00\x00\x00\x00\x00\x00\x00'
p2233
tp2234
Rp2235
sbasg24
I-1
sg25
g13
(g55
S'\x17\x00\x00\x00\x00\x00\x00\x00'
p2236
tp2237
Rp2238
sba(i__main__
tree
p2239
(dp2240
g4
F0.0
sg5
I-1
sg6
(lp2241
(i__main__
tree
p2242
(dp2243
g4
F0.0
sg5
I-1
sg6
(lp2244
(i__main__
tree
p2245
(dp2246
g4
g13
(g17
S'\x00\x96\xb7\t\x8aQ\xee?'
p2247
tp2248
Rp2249
sg5
I0
sg6
(lp2250
sg24
I-1
sg25
I-1
sba(i__main__
tree
p2251
(dp2252
g4
F0.0
sg5
I-1
sg6
(lp2253
(i__main__
tree
p2254
(dp2255
g4
F0.0
sg5
I-1
sg6
(lp2256
(i__main__
tree
p2257
(dp2258
g4
F0.0
sg5
I-1
sg6
(lp2259
(i__main__
tree
p2260
(dp2261
g4
g13
(g17
S'\x1eV\x0b\xb5\x02p\xca?'
p2262
tp2263
Rp2264
sg5
I0
sg6
(lp2265
sg24
I-1
sg25
I-1
sba(i__main__
tree
p2266
(dp2267
g4
g13
(g17
S'#\xdc3\xfd\x967\xe9?'
p2268
tp2269
Rp2270
sg5
I0
sg6
(lp2271
sg24
I-1
sg25
I-1
sbasg24
I-1
sg25
g13
(g55
S'\x10\x00\x00\x00\x00\x00\x00\x00'
p2272
tp2273
Rp2274
sba(i__main__
tree
p2275
(dp2276
g4
g13
(g17
S'\x1c\xa3\x87SO\x82\xe3?'
p2277
tp2278
Rp2279
sg5
I0
sg6
(lp2280
sg24
I-1
sg25
I-1
sbasg24
I-1
sg25
g13
(g55
S'\x17\x00\x00\x00\x00\x00\x00\x00'
p2281
tp2282
Rp2283
sba(i__main__
tree
p2284
(dp2285
g4
F0.0
sg5
I-1
sg6
(lp2286
(i__main__
tree
p2287
(dp2288
g4
F0.0
sg5
I-1
sg6
(lp2289
(i__main__
tree
p2290
(dp2291
g4
g13
(g17
S'\x1eV\x0b\xb5\x02p\xca?'
p2292
tp2293
Rp2294
sg5
I0
sg6
(lp2295
sg24
I-1
sg25
I-1
sba(i__main__
tree
p2296
(dp2297
g4
g13
(g17
S',C!\xab;\xf4\xdc?'
p2298
tp2299
Rp2300
sg5
I0
sg6
(lp2301
sg24
I-1
sg25
I-1
sbasg24
I-1
sg25
g13
(g55
S'\x10\x00\x00\x00\x00\x00\x00\x00'
p2302
tp2303
Rp2304
sba(i__main__
tree
p2305
(dp2306
g4
g13
(g17
S'\xda\xa0.\rl\xe9\xc5?'
p2307
tp2308
Rp2309
sg5
I0
sg6
(lp2310
sg24
I-1
sg25
I-1
sbasg24
I-1
sg25
g13
(g55
S'\x17\x00\x00\x00\x00\x00\x00\x00'
p2311
tp2312
Rp2313
sbasg24
I-1
sg25
g13
(g55
S'\x03\x00\x00\x00\x00\x00\x00\x00'
p2314
tp2315
Rp2316
sbasg24
I-1
sg25
g13
(g55
S',\x00\x00\x00\x00\x00\x00\x00'
p2317
tp2318
Rp2319
sba(i__main__
tree
p2320
(dp2321
g4
F0.0
sg5
I-1
sg6
(lp2322
(i__main__
tree
p2323
(dp2324
g4
g13
(g17
S'd\xb0_4Wm\xe6?'
p2325
tp2326
Rp2327
sg5
I0
sg6
(lp2328
sg24
I-1
sg25
I-1
sba(i__main__
tree
p2329
(dp2330
g4
F0.0
sg5
I-1
sg6
(lp2331
(i__main__
tree
p2332
(dp2333
g4
F0.0
sg5
I-1
sg6
(lp2334
(i__main__
tree
p2335
(dp2336
g4
g13
(g17
S'\x1c\xa3\x87SO\x82\xe3?'
p2337
tp2338
Rp2339
sg5
I0
sg6
(lp2340
sg24
I-1
sg25
I-1
sba(i__main__
tree
p2341
(dp2342
g4
F0.0
sg5
I-1
sg6
(lp2343
(i__main__
tree
p2344
(dp2345
g4
g13
(g17
S'\x96\xb2\x9b\xc5\xecA\xe0?'
p2346
tp2347
Rp2348
sg5
I0
sg6
(lp2349
sg24
I-1
sg25
I-1
sba(i__main__
tree
p2350
(dp2351
g4
g13
(g17
S',C!\xab;\xf4\xdc?'
p2352
tp2353
Rp2354
sg5
I1
sg6
(lp2355
sg24
I-1
sg25
I-1
sbasg24
I-1
sg25
g13
(g55
S'\x17\x00\x00\x00\x00\x00\x00\x00'
p2356
tp2357
Rp2358
sbasg24
I-1
sg25
g13
(g55
S'\x03\x00\x00\x00\x00\x00\x00\x00'
p2359
tp2360
Rp2361
sba(i__main__
tree
p2362
(dp2363
g4
F0.0
sg5
I-1
sg6
(lp2364
(i__main__
tree
p2365
(dp2366
g4
g13
(g17
S'?\xd8\xfd\xccH\x10\xdc?'
p2367
tp2368
Rp2369
sg5
I1
sg6
(lp2370
sg24
I-1
sg25
I-1
sba(i__main__
tree
p2371
(dp2372
g4
F0.0
sg5
I-1
sg6
(lp2373
(i__main__
tree
p2374
(dp2375
g4
g13
(g17
S'\x1eV\x0b\xb5\x02p\xca?'
p2376
tp2377
Rp2378
sg5
I0
sg6
(lp2379
sg24
I-1
sg25
I-1
sba(i__main__
tree
p2380
(dp2381
g4
g13
(g17
S'\xda\xa0.\rl\xe9\xc5?'
p2382
tp2383
Rp2384
sg5
I0
sg6
(lp2385
sg24
I-1
sg25
I-1
sbasg24
I-1
sg25
g13
(g55
S'\x03\x00\x00\x00\x00\x00\x00\x00'
p2386
tp2387
Rp2388
sbasg24
I-1
sg25
g13
(g55
S'\x17\x00\x00\x00\x00\x00\x00\x00'
p2389
tp2390
Rp2391
sbasg24
I-1
sg25
g13
(g55
S',\x00\x00\x00\x00\x00\x00\x00'
p2392
tp2393
Rp2394
sbasg24
I-1
sg25
g13
(g55
S'\x10\x00\x00\x00\x00\x00\x00\x00'
p2395
tp2396
Rp2397
sbasg24
I-1
sg25
g13
(g55
S'\x0e\x00\x00\x00\x00\x00\x00\x00'
p2398
tp2399
Rp2400
sbasg24
I-1
sg25
g13
(g55
S'\x08\x00\x00\x00\x00\x00\x00\x00'
p2401
tp2402
Rp2403
sba(i__main__
tree
p2404
(dp2405
g4
F0.0
sg5
I-1
sg6
(lp2406
(i__main__
tree
p2407
(dp2408
g4
g13
(g17
S'\x9el\x81\x00{d\xef?'
p2409
tp2410
Rp2411
sg5
I0
sg6
(lp2412
sg24
I-1
sg25
I-1
sba(i__main__
tree
p2413
(dp2414
g4
F0.0
sg5
I-1
sg6
(lp2415
(i__main__
tree
p2416
(dp2417
g4
F0.0
sg5
I-1
sg6
(lp2418
(i__main__
tree
p2419
(dp2420
g4
F0.0
sg5
I-1
sg6
(lp2421
(i__main__
tree
p2422
(dp2423
g4
F0.0
sg5
I-1
sg6
(lp2424
(i__main__
tree
p2425
(dp2426
g4
F0.0
sg5
I-1
sg6
(lp2427
(i__main__
tree
p2428
(dp2429
g4
g13
(g17
S'Y$x\x1d\xe7\xce\xea?'
p2430
tp2431
Rp2432
sg5
I0
sg6
(lp2433
sg24
I-1
sg25
I-1
sba(i__main__
tree
p2434
(dp2435
g4
g13
(g17
S',C!\xab;\xf4\xdc?'
p2436
tp2437
Rp2438
sg5
I0
sg6
(lp2439
sg24
I-1
sg25
I-1
sbasg24
I-1
sg25
g13
(g55
S'\x17\x00\x00\x00\x00\x00\x00\x00'
p2440
tp2441
Rp2442
sba(i__main__
tree
p2443
(dp2444
g4
g13
(g17
S'\xde\xf4\xa67\xbdy\xe9?'
p2445
tp2446
Rp2447
sg5
I0
sg6
(lp2448
sg24
I-1
sg25
I-1
sbasg24
I-1
sg25
g13
(g55
S'\x03\x00\x00\x00\x00\x00\x00\x00'
p2449
tp2450
Rp2451
sba(i__main__
tree
p2452
(dp2453
g4
F0.0
sg5
I-1
sg6
(lp2454
(i__main__
tree
p2455
(dp2456
g4
F0.0
sg5
I-1
sg6
(lp2457
(i__main__
tree
p2458
(dp2459
g4
g13
(g17
S'N\xc3A1\xbdR\xe0?'
p2460
tp2461
Rp2462
sg5
I0
sg6
(lp2463
sg24
I-1
sg25
I-1
sba(i__main__
tree
p2464
(dp2465
g4
g13
(g17
S')\x90\xfe\xdd\x85\xb5\xd2?'
p2466
tp2467
Rp2468
sg5
I0
sg6
(lp2469
sg24
I-1
sg25
I-1
sbasg24
I-1
sg25
g13
(g55
S'\x03\x00\x00\x00\x00\x00\x00\x00'
p2470
tp2471
Rp2472
sba(i__main__
tree
p2473
(dp2474
g4
F0.0
sg5
I-1
sg6
(lp2475
(i__main__
tree
p2476
(dp2477
g4
g13
(g17
S'\xda\xa0.\rl\xe9\xc5?'
p2478
tp2479
Rp2480
sg5
I0
sg6
(lp2481
sg24
I-1
sg25
I-1
sba(i__main__
tree
p2482
(dp2483
g4
g13
(g17
S'\xd9\xa0.\rl\xe9\xd5?'
p2484
tp2485
Rp2486
sg5
I0
sg6
(lp2487
sg24
I-1
sg25
I-1
sbasg24
I-1
sg25
g13
(g55
S'\x03\x00\x00\x00\x00\x00\x00\x00'
p2488
tp2489
Rp2490
sbasg24
I-1
sg25
g13
(g55
S'\x17\x00\x00\x00\x00\x00\x00\x00'
p2491
tp2492
Rp2493
sbasg24
I-1
sg25
g13
(g55
S',\x00\x00\x00\x00\x00\x00\x00'
p2494
tp2495
Rp2496
sba(i__main__
tree
p2497
(dp2498
g4
g13
(g17
S'Br}\xc3c\xb3\xe8?'
p2499
tp2500
Rp2501
sg5
I0
sg6
(lp2502
sg24
I-1
sg25
I-1
sbasg24
I-1
sg25
g13
(g55
S'\x08\x00\x00\x00\x00\x00\x00\x00'
p2503
tp2504
Rp2505
sba(i__main__
tree
p2506
(dp2507
g4
F0.0
sg5
I-1
sg6
(lp2508
(i__main__
tree
p2509
(dp2510
g4
F0.0
sg5
I-1
sg6
(lp2511
(i__main__
tree
p2512
(dp2513
g4
F0.0
sg5
I-1
sg6
(lp2514
(i__main__
tree
p2515
(dp2516
g4
F0.0
sg5
I-1
sg6
(lp2517
(i__main__
tree
p2518
(dp2519
g4
g13
(g17
S'\xd9\xa0.\rl\xe9\xd5?'
p2520
tp2521
Rp2522
sg5
I0
sg6
(lp2523
sg24
I-1
sg25
I-1
sba(i__main__
tree
p2524
(dp2525
g4
g13
(g17
S'\x9aC3\x86\x15\x8c\xcb?'
p2526
tp2527
Rp2528
sg5
I0
sg6
(lp2529
sg24
I-1
sg25
I-1
sbasg24
I-1
sg25
g13
(g55
S'\x03\x00\x00\x00\x00\x00\x00\x00'
p2530
tp2531
Rp2532
sba(i__main__
tree
p2533
(dp2534
g4
F0.0
sg5
I-1
sg6
(lp2535
(i__main__
tree
p2536
(dp2537
g4
g13
(g17
S'\xf4\xa4\xe2\xc9\x1b|\xd8?'
p2538
tp2539
Rp2540
sg5
I1
sg6
(lp2541
sg24
I-1
sg25
I-1
sba(i__main__
tree
p2542
(dp2543
g4
g13
(g17
S')\x90\xfe\xdd\x85\xb5\xd2?'
p2544
tp2545
Rp2546
sg5
I0
sg6
(lp2547
sg24
I-1
sg25
I-1
sbasg24
I-1
sg25
g13
(g55
S'\x03\x00\x00\x00\x00\x00\x00\x00'
p2548
tp2549
Rp2550
sbasg24
I-1
sg25
g13
(g55
S',\x00\x00\x00\x00\x00\x00\x00'
p2551
tp2552
Rp2553
sba(i__main__
tree
p2554
(dp2555
g4
F0.0
sg5
I-1
sg6
(lp2556
(i__main__
tree
p2557
(dp2558
g4
g13
(g17
S'?\xd8\xfd\xccH\x10\xdc?'
p2559
tp2560
Rp2561
sg5
I0
sg6
(lp2562
sg24
I-1
sg25
I-1
sba(i__main__
tree
p2563
(dp2564
g4
g13
(g17
S'\xf4\xa4\xe2\xc9\x1b|\xd8?'
p2565
tp2566
Rp2567
sg5
I0
sg6
(lp2568
sg24
I-1
sg25
I-1
sbasg24
I-1
sg25
g13
(g55
S'\x03\x00\x00\x00\x00\x00\x00\x00'
p2569
tp2570
Rp2571
sbasg24
I-1
sg25
g13
(g55
S'\x17\x00\x00\x00\x00\x00\x00\x00'
p2572
tp2573
Rp2574
sba(i__main__
tree
p2575
(dp2576
g4
g13
(g17
S'N\xc3A1\xbdR\xe0?'
p2577
tp2578
Rp2579
sg5
I0
sg6
(lp2580
sg24
I-1
sg25
I-1
sbasg24
I-1
sg25
g13
(g55
S'\x08\x00\x00\x00\x00\x00\x00\x00'
p2581
tp2582
Rp2583
sbasg24
I-1
sg25
g13
(g55
S'\x0e\x00\x00\x00\x00\x00\x00\x00'
p2584
tp2585
Rp2586
sbasg24
I-1
sg25
g13
(g55
S'\x10\x00\x00\x00\x00\x00\x00\x00'
p2587
tp2588
Rp2589
sbasg24
I-1
sg25
g13
(g55
S'\x18\x00\x00\x00\x00\x00\x00\x00'
p2590
tp2591
Rp2592
sba(i__main__
tree
p2593
(dp2594
g4
F0.0
sg5
I-1
sg6
(lp2595
(i__main__
tree
p2596
(dp2597
g4
F0.0
sg5
I-1
sg6
(lp2598
(i__main__
tree
p2599
(dp2600
g4
g13
(g17
S'\xdeW\xa38\xeed\xef?'
p2601
tp2602
Rp2603
sg5
I0
sg6
(lp2604
sg24
I-1
sg25
I-1
sba(i__main__
tree
p2605
(dp2606
g4
F0.0
sg5
I-1
sg6
(lp2607
(i__main__
tree
p2608
(dp2609
g4
F0.0
sg5
I-1
sg6
(lp2610
(i__main__
tree
p2611
(dp2612
g4
F0.0
sg5
I-1
sg6
(lp2613
(i__main__
tree
p2614
(dp2615
g4
F0.0
sg5
I-1
sg6
(lp2616
(i__main__
tree
p2617
(dp2618
g4
F0.0
sg5
I-1
sg6
(lp2619
(i__main__
tree
p2620
(dp2621
g4
g13
(g17
S'z\xd3\x9b\xde\xf4\xc6\xe7?'
p2622
tp2623
Rp2624
sg5
I0
sg6
(lp2625
sg24
I-1
sg25
I-1
sba(i__main__
tree
p2626
(dp2627
g4
g13
(g17
S'\xdb\x90\xc2\xa0\xf9\xcc\xe6?'
p2628
tp2629
Rp2630
sg5
I0
sg6
(lp2631
sg24
I-1
sg25
I-1
sbasg24
I-1
sg25
g13
(g55
S'\x18\x00\x00\x00\x00\x00\x00\x00'
p2632
tp2633
Rp2634
sba(i__main__
tree
p2635
(dp2636
g4
g13
(g17
S'\x92\x02p\x7f\x1f\x1c\xe9?'
p2637
tp2638
Rp2639
sg5
I0
sg6
(lp2640
sg24
I-1
sg25
I-1
sbasg24
I-1
sg25
g13
(g55
S'\x13\x00\x00\x00\x00\x00\x00\x00'
p2641
tp2642
Rp2643
sba(i__main__
tree
p2644
(dp2645
g4
F0.0
sg5
I-1
sg6
(lp2646
(i__main__
tree
p2647
(dp2648
g4
g13
(g17
S'?\xd8\xfd\xccH\x10\xdc?'
p2649
tp2650
Rp2651
sg5
I0
sg6
(lp2652
sg24
I-1
sg25
I-1
sba(i__main__
tree
p2653
(dp2654
g4
F0.0
sg5
I-1
sg6
(lp2655
(i__main__
tree
p2656
(dp2657
g4
g13
(g17
S'\xb0\xad\xf5uh\xc0\xd2?'
p2658
tp2659
Rp2660
sg5
I1
sg6
(lp2661
sg24
I-1
sg25
I-1
sba(i__main__
tree
p2662
(dp2663
g4
g13
(g17
S')\x90\xfe\xdd\x85\xb5\xd2?'
p2664
tp2665
Rp2666
sg5
I0
sg6
(lp2667
sg24
I-1
sg25
I-1
sbasg24
I-1
sg25
g13
(g55
S'\x13\x00\x00\x00\x00\x00\x00\x00'
p2668
tp2669
Rp2670
sbasg24
I-1
sg25
g13
(g55
S'\x18\x00\x00\x00\x00\x00\x00\x00'
p2671
tp2672
Rp2673
sbasg24
I-1
sg25
g13
(g55
S'\x1a\x00\x00\x00\x00\x00\x00\x00'
p2674
tp2675
Rp2676
sba(i__main__
tree
p2677
(dp2678
g4
g13
(g17
S'\xa4\xda\xca`\x07"\xee?'
p2679
tp2680
Rp2681
sg5
I0
sg6
(lp2682
sg24
I-1
sg25
I-1
sbasg24
I-1
sg25
g13
(g55
S'\x10\x00\x00\x00\x00\x00\x00\x00'
p2683
tp2684
Rp2685
sba(i__main__
tree
p2686
(dp2687
g4
F0.0
sg5
I-1
sg6
(lp2688
(i__main__
tree
p2689
(dp2690
g4
F0.0
sg5
I-1
sg6
(lp2691
(i__main__
tree
p2692
(dp2693
g4
F0.0
sg5
I-1
sg6
(lp2694
(i__main__
tree
p2695
(dp2696
g4
F0.0
sg5
I-1
sg6
(lp2697
(i__main__
tree
p2698
(dp2699
g4
g13
(g17
S'\xd9\xa0.\rl\xe9\xd5?'
p2700
tp2701
Rp2702
sg5
I0
sg6
(lp2703
sg24
I-1
sg25
I-1
sba(i__main__
tree
p2704
(dp2705
g4
g13
(g17
S'\xf4\xa4\xe2\xc9\x1b|\xd8?'
p2706
tp2707
Rp2708
sg5
I1
sg6
(lp2709
sg24
I-1
sg25
I-1
sbasg24
I-1
sg25
g13
(g55
S'\x18\x00\x00\x00\x00\x00\x00\x00'
p2710
tp2711
Rp2712
sba(i__main__
tree
p2713
(dp2714
g4
g13
(g17
S'\x1c\xa3\x87SO\x82\xe3?'
p2715
tp2716
Rp2717
sg5
I1
sg6
(lp2718
sg24
I-1
sg25
I-1
sbasg24
I-1
sg25
g13
(g55
S'\x1a\x00\x00\x00\x00\x00\x00\x00'
p2719
tp2720
Rp2721
sba(i__main__
tree
p2722
(dp2723
g4
F0.0
sg5
I-1
sg6
(lp2724
(i__main__
tree
p2725
(dp2726
g4
g13
(g17
S'D\xb2N\xbf^4\xc3?'
p2727
tp2728
Rp2729
sg5
I0
sg6
(lp2730
sg24
I-1
sg25
I-1
sba(i__main__
tree
p2731
(dp2732
g4
g13
(g17
S'.\x11\xbc\xd3o\x82\xcf?'
p2733
tp2734
Rp2735
sg5
I0
sg6
(lp2736
sg24
I-1
sg25
I-1
sbasg24
I-1
sg25
g13
(g55
S'\x1a\x00\x00\x00\x00\x00\x00\x00'
p2737
tp2738
Rp2739
sbasg24
I-1
sg25
g13
(g55
S'\x13\x00\x00\x00\x00\x00\x00\x00'
p2740
tp2741
Rp2742
sba(i__main__
tree
p2743
(dp2744
g4
F0.0
sg5
I-1
sg6
(lp2745
(i__main__
tree
p2746
(dp2747
g4
g13
(g17
S'\x1e\x027\x96A\xa9\xe4?'
p2748
tp2749
Rp2750
sg5
I0
sg6
(lp2751
sg24
I-1
sg25
I-1
sba(i__main__
tree
p2752
(dp2753
g4
g13
(g17
S'\xda\xa0.\rl\xe9\xc5?'
p2754
tp2755
Rp2756
sg5
I0
sg6
(lp2757
sg24
I-1
sg25
I-1
sbasg24
I-1
sg25
g13
(g55
S'\x1a\x00\x00\x00\x00\x00\x00\x00'
p2758
tp2759
Rp2760
sbasg24
I-1
sg25
g13
(g55
S'\x10\x00\x00\x00\x00\x00\x00\x00'
p2761
tp2762
Rp2763
sbasg24
I-1
sg25
g13
(g55
S'\x04\x00\x00\x00\x00\x00\x00\x00'
p2764
tp2765
Rp2766
sbasg24
I-1
sg25
g13
(g55
S'\x00\x00\x00\x00\x00\x00\x00\x00'
p2767
tp2768
Rp2769
sba(i__main__
tree
p2770
(dp2771
g4
F0.0
sg5
I-1
sg6
(lp2772
(i__main__
tree
p2773
(dp2774
g4
F0.0
sg5
I-1
sg6
(lp2775
(i__main__
tree
p2776
(dp2777
g4
F0.0
sg5
I-1
sg6
(lp2778
(i__main__
tree
p2779
(dp2780
g4
F0.0
sg5
I-1
sg6
(lp2781
(i__main__
tree
p2782
(dp2783
g4
F0.0
sg5
I-1
sg6
(lp2784
(i__main__
tree
p2785
(dp2786
g4
g13
(g17
S'\x1c\xa3\x87SO\x82\xe3?'
p2787
tp2788
Rp2789
sg5
I0
sg6
(lp2790
sg24
I-1
sg25
I-1
sba(i__main__
tree
p2791
(dp2792
g4
F0.0
sg5
I-1
sg6
(lp2793
(i__main__
tree
p2794
(dp2795
g4
g13
(g17
S'\xda\xa0.\rl\xe9\xc5?'
p2796
tp2797
Rp2798
sg5
I0
sg6
(lp2799
sg24
I-1
sg25
I-1
sba(i__main__
tree
p2800
(dp2801
g4
g13
(g17
S'?\xd8\xfd\xccH\x10\xdc?'
p2802
tp2803
Rp2804
sg5
I1
sg6
(lp2805
sg24
I-1
sg25
I-1
sbasg24
I-1
sg25
g13
(g55
S'\x04\x00\x00\x00\x00\x00\x00\x00'
p2806
tp2807
Rp2808
sbasg24
I-1
sg25
g13
(g55
S'\x00\x00\x00\x00\x00\x00\x00\x00'
p2809
tp2810
Rp2811
sba(i__main__
tree
p2812
(dp2813
g4
g13
(g17
S'\x1a2\xeb\xafl!\xed?'
p2814
tp2815
Rp2816
sg5
I0
sg6
(lp2817
sg24
I-1
sg25
I-1
sbasg24
I-1
sg25
g13
(g55
S'\x10\x00\x00\x00\x00\x00\x00\x00'
p2818
tp2819
Rp2820
sba(i__main__
tree
p2821
(dp2822
g4
F0.0
sg5
I-1
sg6
(lp2823
(i__main__
tree
p2824
(dp2825
g4
F0.0
sg5
I-1
sg6
(lp2826
(i__main__
tree
p2827
(dp2828
g4
F0.0
sg5
I-1
sg6
(lp2829
(i__main__
tree
p2830
(dp2831
g4
g13
(g17
S'xQ\xf9aLD\xe3?'
p2832
tp2833
Rp2834
sg5
I0
sg6
(lp2835
sg24
I-1
sg25
I-1
sba(i__main__
tree
p2836
(dp2837
g4
g13
(g17
S'?\xd8\xfd\xccH\x10\xdc?'
p2838
tp2839
Rp2840
sg5
I0
sg6
(lp2841
sg24
I-1
sg25
I-1
sbasg24
I-1
sg25
g13
(g55
S'\x10\x00\x00\x00\x00\x00\x00\x00'
p2842
tp2843
Rp2844
sba(i__main__
tree
p2845
(dp2846
g4
g13
(g17
S'\xfc\xc9\xf4J\xa5\x18\xe2?'
p2847
tp2848
Rp2849
sg5
I1
sg6
(lp2850
sg24
I-1
sg25
I-1
sbasg24
I-1
sg25
g13
(g55
S'\x04\x00\x00\x00\x00\x00\x00\x00'
p2851
tp2852
Rp2853
sba(i__main__
tree
p2854
(dp2855
g4
F0.0
sg5
I-1
sg6
(lp2856
(i__main__
tree
p2857
(dp2858
g4
F0.0
sg5
I-1
sg6
(lp2859
(i__main__
tree
p2860
(dp2861
g4
g13
(g17
S'\x0e\x1b\xb5\x1b\x03\xa0\xe2?'
p2862
tp2863
Rp2864
sg5
I1
sg6
(lp2865
sg24
I-1
sg25
I-1
sba(i__main__
tree
p2866
(dp2867
g4
g13
(g17
S'n`#\xbe\xe1w\xe5?'
p2868
tp2869
Rp2870
sg5
I1
sg6
(lp2871
sg24
I-1
sg25
I-1
sbasg24
I-1
sg25
g13
(g55
S'\x04\x00\x00\x00\x00\x00\x00\x00'
p2872
tp2873
Rp2874
sba(i__main__
tree
p2875
(dp2876
g4
F0.0
sg5
I-1
sg6
(lp2877
(i__main__
tree
p2878
(dp2879
g4
g13
(g17
S'\xd9\xa0.\rl\xe9\xd5?'
p2880
tp2881
Rp2882
sg5
I0
sg6
(lp2883
sg24
I-1
sg25
I-1
sba(i__main__
tree
p2884
(dp2885
g4
g13
(g17
S'\x02\x1cs\xc5\x9f\xa7\xd8?'
p2886
tp2887
Rp2888
sg5
I1
sg6
(lp2889
sg24
I-1
sg25
I-1
sbasg24
I-1
sg25
g13
(g55
S'\x04\x00\x00\x00\x00\x00\x00\x00'
p2890
tp2891
Rp2892
sbasg24
I-1
sg25
g13
(g55
S'\x10\x00\x00\x00\x00\x00\x00\x00'
p2893
tp2894
Rp2895
sbasg24
I-1
sg25
g13
(g55
S'\x00\x00\x00\x00\x00\x00\x00\x00'
p2896
tp2897
Rp2898
sbasg24
I-1
sg25
g13
(g55
S'\x18\x00\x00\x00\x00\x00\x00\x00'
p2899
tp2900
Rp2901
sba(i__main__
tree
p2902
(dp2903
g4
F0.0
sg5
I-1
sg6
(lp2904
(i__main__
tree
p2905
(dp2906
g4
F0.0
sg5
I-1
sg6
(lp2907
(i__main__
tree
p2908
(dp2909
g4
F0.0
sg5
I-1
sg6
(lp2910
(i__main__
tree
p2911
(dp2912
g4
F0.0
sg5
I-1
sg6
(lp2913
(i__main__
tree
p2914
(dp2915
g4
g13
(g17
S'\xd9\xa0.\rl\xe9\xd5?'
p2916
tp2917
Rp2918
sg5
I0
sg6
(lp2919
sg24
I-1
sg25
I-1
sba(i__main__
tree
p2920
(dp2921
g4
g13
(g17
S')\x90\xfe\xdd\x85\xb5\xd2?'
p2922
tp2923
Rp2924
sg5
I0
sg6
(lp2925
sg24
I-1
sg25
I-1
sbasg24
I-1
sg25
g13
(g55
S'\x00\x00\x00\x00\x00\x00\x00\x00'
p2926
tp2927
Rp2928
sba(i__main__
tree
p2929
(dp2930
g4
g13
(g17
S'N\xc3A1\xbdR\xe0?'
p2931
tp2932
Rp2933
sg5
I0
sg6
(lp2934
sg24
I-1
sg25
I-1
sbasg24
I-1
sg25
g13
(g55
S'\x10\x00\x00\x00\x00\x00\x00\x00'
p2935
tp2936
Rp2937
sba(i__main__
tree
p2938
(dp2939
g4
g13
(g17
S'\xbe\xcb\xa8\x97\xc0A\xec?'
p2940
tp2941
Rp2942
sg5
I0
sg6
(lp2943
sg24
I-1
sg25
I-1
sbasg24
I-1
sg25
g13
(g55
S'\x18\x00\x00\x00\x00\x00\x00\x00'
p2944
tp2945
Rp2946
sba(i__main__
tree
p2947
(dp2948
g4
F0.0
sg5
I-1
sg6
(lp2949
(i__main__
tree
p2950
(dp2951
g4
g13
(g17
S'\xfc\xc9\xf4J\xa5\x18\xe2?'
p2952
tp2953
Rp2954
sg5
I0
sg6
(lp2955
sg24
I-1
sg25
I-1
sba(i__main__
tree
p2956
(dp2957
g4
F0.0
sg5
I-1
sg6
(lp2958
(i__main__
tree
p2959
(dp2960
g4
g13
(g17
S'\xf4\xa4\xe2\xc9\x1b|\xd8?'
p2961
tp2962
Rp2963
sg5
I0
sg6
(lp2964
sg24
I-1
sg25
I-1
sba(i__main__
tree
p2965
(dp2966
g4
F0.0
sg5
I-1
sg6
(lp2967
(i__main__
tree
p2968
(dp2969
g4
g13
(g17
S"\xbe\xda'3\xdcw\xe6?"
p2970
tp2971
Rp2972
sg5
I0
sg6
(lp2973
sg24
I-1
sg25
I-1
sba(i__main__
tree
p2974
(dp2975
g4
g13
(g17
S'\x1eV\x0b\xb5\x02p\xca?'
p2976
tp2977
Rp2978
sg5
I0
sg6
(lp2979
sg24
I-1
sg25
I-1
sbasg24
I-1
sg25
g13
(g55
S'\x10\x00\x00\x00\x00\x00\x00\x00'
p2980
tp2981
Rp2982
sbasg24
I-1
sg25
g13
(g55
S'\x00\x00\x00\x00\x00\x00\x00\x00'
p2983
tp2984
Rp2985
sbasg24
I-1
sg25
g13
(g55
S'\x18\x00\x00\x00\x00\x00\x00\x00'
p2986
tp2987
Rp2988
sbasg24
I-1
sg25
g13
(g55
S'\x04\x00\x00\x00\x00\x00\x00\x00'
p2989
tp2990
Rp2991
sbasg24
I-1
sg25
g13
(g55
S'\x13\x00\x00\x00\x00\x00\x00\x00'
p2992
tp2993
Rp2994
sba(i__main__
tree
p2995
(dp2996
g4
F0.0
sg5
I-1
sg6
(lp2997
(i__main__
tree
p2998
(dp2999
g4
F0.0
sg5
I-1
sg6
(lp3000
(i__main__
tree
p3001
(dp3002
g4
g13
(g17
S'^\xac}[\x8cz\xee?'
p3003
tp3004
Rp3005
sg5
I1
sg6
(lp3006
sg24
I-1
sg25
I-1
sba(i__main__
tree
p3007
(dp3008
g4
F0.0
sg5
I-1
sg6
(lp3009
(i__main__
tree
p3010
(dp3011
g4
F0.0
sg5
I-1
sg6
(lp3012
(i__main__
tree
p3013
(dp3014
g4
g13
(g17
S'N\xc3A1\xbdR\xe0?'
p3015
tp3016
Rp3017
sg5
I0
sg6
(lp3018
sg24
I-1
sg25
I-1
sba(i__main__
tree
p3019
(dp3020
g4
F0.0
sg5
I-1
sg6
(lp3021
(i__main__
tree
p3022
(dp3023
g4
g13
(g17
S'\xd9\xa0.\rl\xe9\xd5?'
p3024
tp3025
Rp3026
sg5
I0
sg6
(lp3027
sg24
I-1
sg25
I-1
sba(i__main__
tree
p3028
(dp3029
g4
g13
(g17
S'\xd9\xa0.\rl\xe9\xd5?'
p3030
tp3031
Rp3032
sg5
I1
sg6
(lp3033
sg24
I-1
sg25
I-1
sbasg24
I-1
sg25
g13
(g55
S'\x04\x00\x00\x00\x00\x00\x00\x00'
p3034
tp3035
Rp3036
sbasg24
I-1
sg25
g13
(g55
S'\x00\x00\x00\x00\x00\x00\x00\x00'
p3037
tp3038
Rp3039
sba(i__main__
tree
p3040
(dp3041
g4
F0.0
sg5
I-1
sg6
(lp3042
(i__main__
tree
p3043
(dp3044
g4
g13
(g17
S'N\xc3A1\xbdR\xe0?'
p3045
tp3046
Rp3047
sg5
I1
sg6
(lp3048
sg24
I-1
sg25
I-1
sba(i__main__
tree
p3049
(dp3050
g4
F0.0
sg5
I-1
sg6
(lp3051
(i__main__
tree
p3052
(dp3053
g4
g13
(g17
S'\xd9\xa0.\rl\xe9\xd5?'
p3054
tp3055
Rp3056
sg5
I1
sg6
(lp3057
sg24
I-1
sg25
I-1
sba(i__main__
tree
p3058
(dp3059
g4
g13
(g17
S'\x1f?\xa1E\x8d\xce\xe4?'
p3060
tp3061
Rp3062
sg5
I1
sg6
(lp3063
sg24
I-1
sg25
I-1
sbasg24
I-1
sg25
g13
(g55
S'\x00\x00\x00\x00\x00\x00\x00\x00'
p3064
tp3065
Rp3066
sbasg24
I-1
sg25
g13
(g55
S'\x04\x00\x00\x00\x00\x00\x00\x00'
p3067
tp3068
Rp3069
sbasg24
I-1
sg25
g13
(g55
S'\x18\x00\x00\x00\x00\x00\x00\x00'
p3070
tp3071
Rp3072
sbasg24
I-1
sg25
g13
(g55
S'\x10\x00\x00\x00\x00\x00\x00\x00'
p3073
tp3074
Rp3075
sba(i__main__
tree
p3076
(dp3077
g4
F0.0
sg5
I-1
sg6
(lp3078
(i__main__
tree
p3079
(dp3080
g4
F0.0
sg5
I-1
sg6
(lp3081
(i__main__
tree
p3082
(dp3083
g4
F0.0
sg5
I-1
sg6
(lp3084
(i__main__
tree
p3085
(dp3086
g4
g13
(g17
S'\x1eV\x0b\xb5\x02p\xca?'
p3087
tp3088
Rp3089
sg5
I1
sg6
(lp3090
sg24
I-1
sg25
I-1
sba(i__main__
tree
p3091
(dp3092
g4
g13
(g17
S'\xf4\xa4\xe2\xc9\x1b|\xd8?'
p3093
tp3094
Rp3095
sg5
I0
sg6
(lp3096
sg24
I-1
sg25
I-1
sbasg24
I-1
sg25
g13
(g55
S'\x18\x00\x00\x00\x00\x00\x00\x00'
p3097
tp3098
Rp3099
sba(i__main__
tree
p3100
(dp3101
g4
F0.0
sg5
I-1
sg6
(lp3102
(i__main__
tree
p3103
(dp3104
g4
g13
(g17
S'\xd9\xa0.\rl\xe9\xd5?'
p3105
tp3106
Rp3107
sg5
I0
sg6
(lp3108
sg24
I-1
sg25
I-1
sba(i__main__
tree
p3109
(dp3110
g4
F0.0
sg5
I-1
sg6
(lp3111
(i__main__
tree
p3112
(dp3113
g4
g13
(g17
S')\x90\xfe\xdd\x85\xb5\xd2?'
p3114
tp3115
Rp3116
sg5
I1
sg6
(lp3117
sg24
I-1
sg25
I-1
sba(i__main__
tree
p3118
(dp3119
g4
g13
(g17
S'\xd1\xe5,\xbe\x96\xea\xe2?'
p3120
tp3121
Rp3122
sg5
I1
sg6
(lp3123
sg24
I-1
sg25
I-1
sbasg24
I-1
sg25
g13
(g55
S'\x00\x00\x00\x00\x00\x00\x00\x00'
p3124
tp3125
Rp3126
sbasg24
I-1
sg25
g13
(g55
S'\x18\x00\x00\x00\x00\x00\x00\x00'
p3127
tp3128
Rp3129
sbasg24
I-1
sg25
g13
(g55
S'\x04\x00\x00\x00\x00\x00\x00\x00'
p3130
tp3131
Rp3132
sba(i__main__
tree
p3133
(dp3134
g4
g13
(g17
S'N\xc3A1\xbdR\xe0?'
p3135
tp3136
Rp3137
sg5
I0
sg6
(lp3138
sg24
I-1
sg25
I-1
sbasg24
I-1
sg25
g13
(g55
S'\x10\x00\x00\x00\x00\x00\x00\x00'
p3139
tp3140
Rp3141
sbasg24
I-1
sg25
g13
(g55
S'\x13\x00\x00\x00\x00\x00\x00\x00'
p3142
tp3143
Rp3144
sbasg24
I-1
sg25
g13
(g55
S'\x1a\x00\x00\x00\x00\x00\x00\x00'
p3145
tp3146
Rp3147
sbasg24
I-1
sg25
g13
(g55
S'\x01\x00\x00\x00\x00\x00\x00\x00'
p3148
tp3149
Rp3150
sbaa(dp3151
S'5Versus6'
p3152
(i__main__
tree
p3153
(dp3154
g4
F0.0
sg5
I-1
sg6
(lp3155
(i__main__
tree
p3156
(dp3157
g4
F0.0
sg5
I-1
sg6
(lp3158
(i__main__
tree
p3159
(dp3160
g4
F0.0
sg5
I-1
sg6
(lp3161
(i__main__
tree
p3162
(dp3163
g4
F0.0
sg5
I-1
sg6
(lp3164
(i__main__
tree
p3165
(dp3166
g4
F0.0
sg5
I-1
sg6
(lp3167
(i__main__
tree
p3168
(dp3169
g4
F0.0
sg5
I-1
sg6
(lp3170
(i__main__
tree
p3171
(dp3172
g4
F0.0
sg5
I-1
sg6
(lp3173
(i__main__
tree
p3174
(dp3175
g4
g13
(g17
S'?\xd8\xfd\xccH\x10\xdc?'
p3176
tp3177
Rp3178
sg5
I0
sg6
(lp3179
sg24
I-1
sg25
I-1
sba(i__main__
tree
p3180
(dp3181
g4
g13
(g17
S')\x90\xfe\xdd\x85\xb5\xd2?'
p3182
tp3183
Rp3184
sg5
I0
sg6
(lp3185
sg24
I-1
sg25
I-1
sbasg24
I-1
sg25
g13
(g55
S'\x00\x00\x00\x00\x00\x00\x00\x00'
p3186
tp3187
Rp3188
sba(i__main__
tree
p3189
(dp3190
g4
F0.0
sg5
I-1
sg6
(lp3191
(i__main__
tree
p3192
(dp3193
g4
g13
(g17
S'\x1eV\x0b\xb5\x02p\xca?'
p3194
tp3195
Rp3196
sg5
I1
sg6
(lp3197
sg24
I-1
sg25
I-1
sba(i__main__
tree
p3198
(dp3199
g4
g13
(g17
S'\x1eV\x0b\xb5\x02p\xca?'
p3200
tp3201
Rp3202
sg5
I0
sg6
(lp3203
sg24
I-1
sg25
I-1
sbasg24
I-1
sg25
g13
(g55
S'\x00\x00\x00\x00\x00\x00\x00\x00'
p3204
tp3205
Rp3206
sbasg24
I-1
sg25
g13
(g55
S'\x04\x00\x00\x00\x00\x00\x00\x00'
p3207
tp3208
Rp3209
sba(i__main__
tree
p3210
(dp3211
g4
g13
(g17
S'\xd9\xa0.\rl\xe9\xd5?'
p3212
tp3213
Rp3214
sg5
I1
sg6
(lp3215
sg24
I-1
sg25
I-1
sbasg24
I-1
sg25
g13
(g55
S'\x1a\x00\x00\x00\x00\x00\x00\x00'
p3216
tp3217
Rp3218
sba(i__main__
tree
p3219
(dp3220
g4
g13
(g17
S'\xf6u\x8e;\xeb\xcd\xe9?'
p3221
tp3222
Rp3223
sg5
I0
sg6
(lp3224
sg24
I-1
sg25
I-1
sbasg24
I-1
sg25
g13
(g55
S'\x03\x00\x00\x00\x00\x00\x00\x00'
p3225
tp3226
Rp3227
sba(i__main__
tree
p3228
(dp3229
g4
F0.0
sg5
I-1
sg6
(lp3230
(i__main__
tree
p3231
(dp3232
g4
g13
(g17
S'\x1eV\x0b\xb5\x02p\xca?'
p3233
tp3234
Rp3235
sg5
I0
sg6
(lp3236
sg24
I-1
sg25
I-1
sba(i__main__
tree
p3237
(dp3238
g4
F0.0
sg5
I-1
sg6
(lp3239
(i__main__
tree
p3240
(dp3241
g4
g13
(g17
S'\x14*\x93\xa2\x05\xd8\xea?'
p3242
tp3243
Rp3244
sg5
I1
sg6
(lp3245
sg24
I-1
sg25
I-1
sba(i__main__
tree
p3246
(dp3247
g4
F0.0
sg5
I-1
sg6
(lp3248
(i__main__
tree
p3249
(dp3250
g4
g13
(g17
S'\x1eV\x0b\xb5\x02p\xca?'
p3251
tp3252
Rp3253
sg5
I0
sg6
(lp3254
sg24
I-1
sg25
I-1
sba(i__main__
tree
p3255
(dp3256
g4
g13
(g17
S'\x1eV\x0b\xb5\x02p\xca?'
p3257
tp3258
Rp3259
sg5
I1
sg6
(lp3260
sg24
I-1
sg25
I-1
sbasg24
I-1
sg25
g13
(g55
S'\x04\x00\x00\x00\x00\x00\x00\x00'
p3261
tp3262
Rp3263
sbasg24
I-1
sg25
g13
(g55
S'\x03\x00\x00\x00\x00\x00\x00\x00'
p3264
tp3265
Rp3266
sbasg24
I-1
sg25
g13
(g55
S'\x00\x00\x00\x00\x00\x00\x00\x00'
p3267
tp3268
Rp3269
sbasg24
I-1
sg25
g13
(g55
S'\x01\x00\x00\x00\x00\x00\x00\x00'
p3270
tp3271
Rp3272
sba(i__main__
tree
p3273
(dp3274
g4
F0.0
sg5
I-1
sg6
(lp3275
(i__main__
tree
p3276
(dp3277
g4
g13
(g17
S'4\x19\xc8\x92\x9c\x95\xee?'
p3278
tp3279
Rp3280
sg5
I0
sg6
(lp3281
sg24
I-1
sg25
I-1
sba(i__main__
tree
p3282
(dp3283
g4
F0.0
sg5
I-1
sg6
(lp3284
(i__main__
tree
p3285
(dp3286
g4
g13
(g17
S'\x1e\x027\x96A\xa9\xe4?'
p3287
tp3288
Rp3289
sg5
I0
sg6
(lp3290
sg24
I-1
sg25
I-1
sba(i__main__
tree
p3291
(dp3292
g4
F0.0
sg5
I-1
sg6
(lp3293
(i__main__
tree
p3294
(dp3295
g4
g13
(g17
S'\xd9\xa0.\rl\xe9\xd5?'
p3296
tp3297
Rp3298
sg5
I0
sg6
(lp3299
sg24
I-1
sg25
I-1
sba(i__main__
tree
p3300
(dp3301
g4
g13
(g17
S'?\xd8\xfd\xccH\x10\xdc?'
p3302
tp3303
Rp3304
sg5
I1
sg6
(lp3305
sg24
I-1
sg25
I-1
sbasg24
I-1
sg25
g13
(g55
S'\x1a\x00\x00\x00\x00\x00\x00\x00'
p3306
tp3307
Rp3308
sbasg24
I-1
sg25
g13
(g55
S'\x00\x00\x00\x00\x00\x00\x00\x00'
p3309
tp3310
Rp3311
sbasg24
I-1
sg25
g13
(g55
S'\x04\x00\x00\x00\x00\x00\x00\x00'
p3312
tp3313
Rp3314
sbasg24
I-1
sg25
g13
(g55
S'\x10\x00\x00\x00\x00\x00\x00\x00'
p3315
tp3316
Rp3317
sba(i__main__
tree
p3318
(dp3319
g4
F0.0
sg5
I-1
sg6
(lp3320
(i__main__
tree
p3321
(dp3322
g4
F0.0
sg5
I-1
sg6
(lp3323
(i__main__
tree
p3324
(dp3325
g4
F0.0
sg5
I-1
sg6
(lp3326
(i__main__
tree
p3327
(dp3328
g4
F0.0
sg5
I-1
sg6
(lp3329
(i__main__
tree
p3330
(dp3331
g4
g13
(g17
S'\xd9\xa0.\rl\xe9\xd5?'
p3332
tp3333
Rp3334
sg5
I0
sg6
(lp3335
sg24
I-1
sg25
I-1
sba(i__main__
tree
p3336
(dp3337
g4
F0.0
sg5
I-1
sg6
(lp3338
(i__main__
tree
p3339
(dp3340
g4
g13
(g17
S'\xda\xa0.\rl\xe9\xc5?'
p3341
tp3342
Rp3343
sg5
I0
sg6
(lp3344
sg24
I-1
sg25
I-1
sba(i__main__
tree
p3345
(dp3346
g4
g13
(g17
S'\xfc\xc9\xf4J\xa5\x18\xe2?'
p3347
tp3348
Rp3349
sg5
I1
sg6
(lp3350
sg24
I-1
sg25
I-1
sbasg24
I-1
sg25
g13
(g55
S'\x04\x00\x00\x00\x00\x00\x00\x00'
p3351
tp3352
Rp3353
sbasg24
I-1
sg25
g13
(g55
S'\x00\x00\x00\x00\x00\x00\x00\x00'
p3354
tp3355
Rp3356
sba(i__main__
tree
p3357
(dp3358
g4
g13
(g17
S'\x92\x02p\x7f\x1f\x1c\xe9?'
p3359
tp3360
Rp3361
sg5
I1
sg6
(lp3362
sg24
I-1
sg25
I-1
sbasg24
I-1
sg25
g13
(g55
S'\x1a\x00\x00\x00\x00\x00\x00\x00'
p3363
tp3364
Rp3365
sba(i__main__
tree
p3366
(dp3367
g4
g13
(g17
S'\x08\xa6\xe0#\x95\xb7\xe7?'
p3368
tp3369
Rp3370
sg5
I0
sg6
(lp3371
sg24
I-1
sg25
I-1
sbasg24
I-1
sg25
g13
(g55
S'\x10\x00\x00\x00\x00\x00\x00\x00'
p3372
tp3373
Rp3374
sba(i__main__
tree
p3375
(dp3376
g4
g13
(g17
S'\xa4\xcd\x87Y\xc5\xb4\xee?'
p3377
tp3378
Rp3379
sg5
I1
sg6
(lp3380
sg24
I-1
sg25
I-1
sbasg24
I-1
sg25
g13
(g55
S'\x01\x00\x00\x00\x00\x00\x00\x00'
p3381
tp3382
Rp3383
sbasg24
I-1
sg25
g13
(g55
S'\x18\x00\x00\x00\x00\x00\x00\x00'
p3384
tp3385
Rp3386
sbsS'2Versus6'
p3387
(i__main__
tree
p3388
(dp3389
g4
F0.0
sg5
I-1
sg6
(lp3390
(i__main__
tree
p3391
(dp3392
g4
F0.0
sg5
I-1
sg6
(lp3393
(i__main__
tree
p3394
(dp3395
g4
F0.0
sg5
I-1
sg6
(lp3396
(i__main__
tree
p3397
(dp3398
g4
F0.0
sg5
I-1
sg6
(lp3399
(i__main__
tree
p3400
(dp3401
g4
F0.0
sg5
I-1
sg6
(lp3402
(i__main__
tree
p3403
(dp3404
g4
F0.0
sg5
I-1
sg6
(lp3405
(i__main__
tree
p3406
(dp3407
g4
g13
(g17
S'"Fz\x14d\x1e\xe7?'
p3408
tp3409
Rp3410
sg5
I0
sg6
(lp3411
sg24
I-1
sg25
I-1
sba(i__main__
tree
p3412
(dp3413
g4
g13
(g17
S'\xda\xa0.\rl\xe9\xc5?'
p3414
tp3415
Rp3416
sg5
I0
sg6
(lp3417
sg24
I-1
sg25
I-1
sbasg24
I-1
sg25
g13
(g55
S'\x1a\x00\x00\x00\x00\x00\x00\x00'
p3418
tp3419
Rp3420
sba(i__main__
tree
p3421
(dp3422
g4
F0.0
sg5
I-1
sg6
(lp3423
(i__main__
tree
p3424
(dp3425
g4
g13
(g17
S'\xda\xa0.\rl\xe9\xc5?'
p3426
tp3427
Rp3428
sg5
I0
sg6
(lp3429
sg24
I-1
sg25
I-1
sba(i__main__
tree
p3430
(dp3431
g4
g13
(g17
S'\x1eV\x0b\xb5\x02p\xca?'
p3432
tp3433
Rp3434
sg5
I1
sg6
(lp3435
sg24
I-1
sg25
I-1
sbasg24
I-1
sg25
g13
(g55
S'\x18\x00\x00\x00\x00\x00\x00\x00'
p3436
tp3437
Rp3438
sbasg24
I-1
sg25
g13
(g55
S'\x04\x00\x00\x00\x00\x00\x00\x00'
p3439
tp3440
Rp3441
sba(i__main__
tree
p3442
(dp3443
g4
g13
(g17
S'\xf6u\x8e;\xeb\xcd\xe9?'
p3444
tp3445
Rp3446
sg5
I0
sg6
(lp3447
sg24
I-1
sg25
I-1
sbasg24
I-1
sg25
g13
(g55
S'\x10\x00\x00\x00\x00\x00\x00\x00'
p3448
tp3449
Rp3450
sba(i__main__
tree
p3451
(dp3452
g4
F0.0
sg5
I-1
sg6
(lp3453
(i__main__
tree
p3454
(dp3455
g4
g13
(g17
S"\xba\x10\xec\\'_\xea?"
p3456
tp3457
Rp3458
sg5
I1
sg6
(lp3459
sg24
I-1
sg25
I-1
sba(i__main__
tree
p3460
(dp3461
g4
F0.0
sg5
I-1
sg6
(lp3462
(i__main__
tree
p3463
(dp3464
g4
g13
(g17
S'\x1eV\x0b\xb5\x02p\xca?'
p3465
tp3466
Rp3467
sg5
I0
sg6
(lp3468
sg24
I-1
sg25
I-1
sba(i__main__
tree
p3469
(dp3470
g4
g13
(g17
S'\x1eV\x0b\xb5\x02p\xca?'
p3471
tp3472
Rp3473
sg5
I1
sg6
(lp3474
sg24
I-1
sg25
I-1
sbasg24
I-1
sg25
g13
(g55
S'\x04\x00\x00\x00\x00\x00\x00\x00'
p3475
tp3476
Rp3477
sbasg24
I-1
sg25
g13
(g55
S'\x10\x00\x00\x00\x00\x00\x00\x00'
p3478
tp3479
Rp3480
sbasg24
I-1
sg25
g13
(g55
S'\x00\x00\x00\x00\x00\x00\x00\x00'
p3481
tp3482
Rp3483
sba(i__main__
tree
p3484
(dp3485
g4
g13
(g17
S'o\x17\x9d\x9c\x01L\xef?'
p3486
tp3487
Rp3488
sg5
I1
sg6
(lp3489
sg24
I-1
sg25
I-1
sbasg24
I-1
sg25
g13
(g55
S'\x01\x00\x00\x00\x00\x00\x00\x00'
p3490
tp3491
Rp3492
sba(i__main__
tree
p3493
(dp3494
g4
F0.0
sg5
I-1
sg6
(lp3495
(i__main__
tree
p3496
(dp3497
g4
g13
(g17
S'\xd3\x97\xf0H\xb9\xf3\xee?'
p3498
tp3499
Rp3500
sg5
I0
sg6
(lp3501
sg24
I-1
sg25
I-1
sba(i__main__
tree
p3502
(dp3503
g4
F0.0
sg5
I-1
sg6
(lp3504
(i__main__
tree
p3505
(dp3506
g4
F0.0
sg5
I-1
sg6
(lp3507
(i__main__
tree
p3508
(dp3509
g4
g13
(g17
S'\x14*\x93\xa2\x05\xd8\xea?'
p3510
tp3511
Rp3512
sg5
I0
sg6
(lp3513
sg24
I-1
sg25
I-1
sba(i__main__
tree
p3514
(dp3515
g4
F0.0
sg5
I-1
sg6
(lp3516
(i__main__
tree
p3517
(dp3518
g4
g13
(g17
S'N\xc3A1\xbdR\xe0?'
p3519
tp3520
Rp3521
sg5
I0
sg6
(lp3522
sg24
I-1
sg25
I-1
sba(i__main__
tree
p3523
(dp3524
g4
g13
(g17
S'?\xd8\xfd\xccH\x10\xdc?'
p3525
tp3526
Rp3527
sg5
I1
sg6
(lp3528
sg24
I-1
sg25
I-1
sbasg24
I-1
sg25
g13
(g55
S'\x1a\x00\x00\x00\x00\x00\x00\x00'
p3529
tp3530
Rp3531
sbasg24
I-1
sg25
g13
(g55
S'\x01\x00\x00\x00\x00\x00\x00\x00'
p3532
tp3533
Rp3534
sba(i__main__
tree
p3535
(dp3536
g4
F0.0
sg5
I-1
sg6
(lp3537
(i__main__
tree
p3538
(dp3539
g4
F0.0
sg5
I-1
sg6
(lp3540
(i__main__
tree
p3541
(dp3542
g4
F0.0
sg5
I-1
sg6
(lp3543
(i__main__
tree
p3544
(dp3545
g4
g13
(g17
S'\x1eV\x0b\xb5\x02p\xca?'
p3546
tp3547
Rp3548
sg5
I0
sg6
(lp3549
sg24
I-1
sg25
I-1
sba(i__main__
tree
p3550
(dp3551
g4
g13
(g17
S')\x90\xfe\xdd\x85\xb5\xd2?'
p3552
tp3553
Rp3554
sg5
I1
sg6
(lp3555
sg24
I-1
sg25
I-1
sbasg24
I-1
sg25
g13
(g55
S'\x01\x00\x00\x00\x00\x00\x00\x00'
p3556
tp3557
Rp3558
sba(i__main__
tree
p3559
(dp3560
g4
g13
(g17
S'\x1eV\x0b\xb5\x02p\xca?'
p3561
tp3562
Rp3563
sg5
I1
sg6
(lp3564
sg24
I-1
sg25
I-1
sbasg24
I-1
sg25
g13
(g55
S'\x1a\x00\x00\x00\x00\x00\x00\x00'
p3565
tp3566
Rp3567
sba(i__main__
tree
p3568
(dp3569
g4
g13
(g17
S'\x1e\x027\x96A\xa9\xe4?'
p3570
tp3571
Rp3572
sg5
I1
sg6
(lp3573
sg24
I-1
sg25
I-1
sbasg24
I-1
sg25
g13
(g55
S'\x04\x00\x00\x00\x00\x00\x00\x00'
p3574
tp3575
Rp3576
sbasg24
I-1
sg25
g13
(g55
S'\x18\x00\x00\x00\x00\x00\x00\x00'
p3577
tp3578
Rp3579
sbasg24
I-1
sg25
g13
(g55
S'\x00\x00\x00\x00\x00\x00\x00\x00'
p3580
tp3581
Rp3582
sbasg24
I-1
sg25
g13
(g55
S'\x08\x00\x00\x00\x00\x00\x00\x00'
p3583
tp3584
Rp3585
sbsS'3Versus5'
p3586
(i__main__
tree
p3587
(dp3588
g4
F0.0
sg5
I-1
sg6
(lp3589
(i__main__
tree
p3590
(dp3591
g4
F0.0
sg5
I-1
sg6
(lp3592
(i__main__
tree
p3593
(dp3594
g4
g13
(g17
S'\xb0\x16\x17\xaa+\x9a\xee?'
p3595
tp3596
Rp3597
sg5
I1
sg6
(lp3598
sg24
I-1
sg25
I-1
sba(i__main__
tree
p3599
(dp3600
g4
F0.0
sg5
I-1
sg6
(lp3601
(i__main__
tree
p3602
(dp3603
g4
F0.0
sg5
I-1
sg6
(lp3604
(i__main__
tree
p3605
(dp3606
g4
g13
(g17
S'\x08\xa6\xe0#\x95\xb7\xe7?'
p3607
tp3608
Rp3609
sg5
I1
sg6
(lp3610
sg24
I-1
sg25
I-1
sba(i__main__
tree
p3611
(dp3612
g4
F0.0
sg5
I-1
sg6
(lp3613
(i__main__
tree
p3614
(dp3615
g4
g13
(g17
S'?\xd8\xfd\xccH\x10\xdc?'
p3616
tp3617
Rp3618
sg5
I0
sg6
(lp3619
sg24
I-1
sg25
I-1
sba(i__main__
tree
p3620
(dp3621
g4
g13
(g17
S'\xd9\xa0.\rl\xe9\xd5?'
p3622
tp3623
Rp3624
sg5
I1
sg6
(lp3625
sg24
I-1
sg25
I-1
sbasg24
I-1
sg25
g13
(g55
S',\x00\x00\x00\x00\x00\x00\x00'
p3626
tp3627
Rp3628
sbasg24
I-1
sg25
g13
(g55
S'\x04\x00\x00\x00\x00\x00\x00\x00'
p3629
tp3630
Rp3631
sba(i__main__
tree
p3632
(dp3633
g4
F0.0
sg5
I-1
sg6
(lp3634
(i__main__
tree
p3635
(dp3636
g4
g13
(g17
S'\x1c\xa3\x87SO\x82\xe3?'
p3637
tp3638
Rp3639
sg5
I0
sg6
(lp3640
sg24
I-1
sg25
I-1
sba(i__main__
tree
p3641
(dp3642
g4
F0.0
sg5
I-1
sg6
(lp3643
(i__main__
tree
p3644
(dp3645
g4
F0.0
sg5
I-1
sg6
(lp3646
(i__main__
tree
p3647
(dp3648
g4
g13
(g17
S'\x1eV\x0b\xb5\x02p\xca?'
p3649
tp3650
Rp3651
sg5
I1
sg6
(lp3652
sg24
I-1
sg25
I-1
sba(i__main__
tree
p3653
(dp3654
g4
g13
(g17
S'\x1eV\x0b\xb5\x02p\xca?'
p3655
tp3656
Rp3657
sg5
I0
sg6
(lp3658
sg24
I-1
sg25
I-1
sbasg24
I-1
sg25
g13
(g55
S'\x0e\x00\x00\x00\x00\x00\x00\x00'
p3659
tp3660
Rp3661
sba(i__main__
tree
p3662
(dp3663
g4
F0.0
sg5
I-1
sg6
(lp3664
(i__main__
tree
p3665
(dp3666
g4
g13
(g17
S'\xd9\xa0.\rl\xe9\xd5?'
p3667
tp3668
Rp3669
sg5
I0
sg6
(lp3670
sg24
I-1
sg25
I-1
sba(i__main__
tree
p3671
(dp3672
g4
g13
(g17
S'\x1eV\x0b\xb5\x02p\xca?'
p3673
tp3674
Rp3675
sg5
I1
sg6
(lp3676
sg24
I-1
sg25
I-1
sbasg24
I-1
sg25
g13
(g55
S'\x0e\x00\x00\x00\x00\x00\x00\x00'
p3677
tp3678
Rp3679
sbasg24
I-1
sg25
g13
(g55
S'\x04\x00\x00\x00\x00\x00\x00\x00'
p3680
tp3681
Rp3682
sbasg24
I-1
sg25
g13
(g55
S'\x10\x00\x00\x00\x00\x00\x00\x00'
p3683
tp3684
Rp3685
sbasg24
I-1
sg25
g13
(g55
S'\x01\x00\x00\x00\x00\x00\x00\x00'
p3686
tp3687
Rp3688
sbasg24
I-1
sg25
g13
(g55
S'\x18\x00\x00\x00\x00\x00\x00\x00'
p3689
tp3690
Rp3691
sba(i__main__
tree
p3692
(dp3693
g4
F0.0
sg5
I-1
sg6
(lp3694
(i__main__
tree
p3695
(dp3696
g4
F0.0
sg5
I-1
sg6
(lp3697
(i__main__
tree
p3698
(dp3699
g4
F0.0
sg5
I-1
sg6
(lp3700
(i__main__
tree
p3701
(dp3702
g4
F0.0
sg5
I-1
sg6
(lp3703
(i__main__
tree
p3704
(dp3705
g4
F0.0
sg5
I-1
sg6
(lp3706
(i__main__
tree
p3707
(dp3708
g4
g13
(g17
S')\x90\xfe\xdd\x85\xb5\xd2?'
p3709
tp3710
Rp3711
sg5
I0
sg6
(lp3712
sg24
I-1
sg25
I-1
sba(i__main__
tree
p3713
(dp3714
g4
g13
(g17
S'\xd9\xa0.\rl\xe9\xd5?'
p3715
tp3716
Rp3717
sg5
I1
sg6
(lp3718
sg24
I-1
sg25
I-1
sbasg24
I-1
sg25
g13
(g55
S',\x00\x00\x00\x00\x00\x00\x00'
p3719
tp3720
Rp3721
sba(i__main__
tree
p3722
(dp3723
g4
g13
(g17
S'?\xd8\xfd\xccH\x10\xdc?'
p3724
tp3725
Rp3726
sg5
I0
sg6
(lp3727
sg24
I-1
sg25
I-1
sbasg24
I-1
sg25
g13
(g55
S'\x04\x00\x00\x00\x00\x00\x00\x00'
p3728
tp3729
Rp3730
sba(i__main__
tree
p3731
(dp3732
g4
g13
(g17
S'\x1c\xa3\x87SO\x82\xe3?'
p3733
tp3734
Rp3735
sg5
I1
sg6
(lp3736
sg24
I-1
sg25
I-1
sbasg24
I-1
sg25
g13
(g55
S'\x10\x00\x00\x00\x00\x00\x00\x00'
p3737
tp3738
Rp3739
sba(i__main__
tree
p3740
(dp3741
g4
F0.0
sg5
I-1
sg6
(lp3742
(i__main__
tree
p3743
(dp3744
g4
g13
(g17
S'\x1e\x027\x96A\xa9\xe4?'
p3745
tp3746
Rp3747
sg5
I0
sg6
(lp3748
sg24
I-1
sg25
I-1
sba(i__main__
tree
p3749
(dp3750
g4
F0.0
sg5
I-1
sg6
(lp3751
(i__main__
tree
p3752
(dp3753
g4
g13
(g17
S'N\xc3A1\xbdR\xe0?'
p3754
tp3755
Rp3756
sg5
I0
sg6
(lp3757
sg24
I-1
sg25
I-1
sba(i__main__
tree
p3758
(dp3759
g4
g13
(g17
S'\x1eV\x0b\xb5\x02p\xca?'
p3760
tp3761
Rp3762
sg5
I1
sg6
(lp3763
sg24
I-1
sg25
I-1
sbasg24
I-1
sg25
g13
(g55
S'\x04\x00\x00\x00\x00\x00\x00\x00'
p3764
tp3765
Rp3766
sbasg24
I-1
sg25
g13
(g55
S'\x10\x00\x00\x00\x00\x00\x00\x00'
p3767
tp3768
Rp3769
sbasg24
I-1
sg25
g13
(g55
S'\x01\x00\x00\x00\x00\x00\x00\x00'
p3770
tp3771
Rp3772
sba(i__main__
tree
p3773
(dp3774
g4
g13
(g17
S'>\x9fj\xcc\xcd]\xee?'
p3775
tp3776
Rp3777
sg5
I0
sg6
(lp3778
sg24
I-1
sg25
I-1
sbasg24
I-1
sg25
g13
(g55
S'\x18\x00\x00\x00\x00\x00\x00\x00'
p3779
tp3780
Rp3781
sbasg24
I-1
sg25
g13
(g55
S'\x13\x00\x00\x00\x00\x00\x00\x00'
p3782
tp3783
Rp3784
sbsS'3Versus4'
p3785
(i__main__
tree
p3786
(dp3787
g4
F0.0
sg5
I-1
sg6
(lp3788
(i__main__
tree
p3789
(dp3790
g4
F0.0
sg5
I-1
sg6
(lp3791
(i__main__
tree
p3792
(dp3793
g4
F0.0
sg5
I-1
sg6
(lp3794
(i__main__
tree
p3795
(dp3796
g4
F0.0
sg5
I-1
sg6
(lp3797
(i__main__
tree
p3798
(dp3799
g4
F0.0
sg5
I-1
sg6
(lp3800
(i__main__
tree
p3801
(dp3802
g4
g13
(g17
S'\xd9\xa0.\rl\xe9\xd5?'
p3803
tp3804
Rp3805
sg5
I1
sg6
(lp3806
sg24
I-1
sg25
I-1
sba(i__main__
tree
p3807
(dp3808
g4
g13
(g17
S'?\xd8\xfd\xccH\x10\xdc?'
p3809
tp3810
Rp3811
sg5
I0
sg6
(lp3812
sg24
I-1
sg25
I-1
sbasg24
I-1
sg25
g13
(g55
S'\x03\x00\x00\x00\x00\x00\x00\x00'
p3813
tp3814
Rp3815
sba(i__main__
tree
p3816
(dp3817
g4
g13
(g17
S'\x1c\xa3\x87SO\x82\xe3?'
p3818
tp3819
Rp3820
sg5
I0
sg6
(lp3821
sg24
I-1
sg25
I-1
sbasg24
I-1
sg25
g13
(g55
S'\x00\x00\x00\x00\x00\x00\x00\x00'
p3822
tp3823
Rp3824
sba(i__main__
tree
p3825
(dp3826
g4
F0.0
sg5
I-1
sg6
(lp3827
(i__main__
tree
p3828
(dp3829
g4
g13
(g17
S'\xbe\xa8\x91e(\r\xeb?'
p3830
tp3831
Rp3832
sg5
I1
sg6
(lp3833
sg24
I-1
sg25
I-1
sba(i__main__
tree
p3834
(dp3835
g4
F0.0
sg5
I-1
sg6
(lp3836
(i__main__
tree
p3837
(dp3838
g4
g13
(g17
S'\x1eV\x0b\xb5\x02p\xca?'
p3839
tp3840
Rp3841
sg5
I1
sg6
(lp3842
sg24
I-1
sg25
I-1
sba(i__main__
tree
p3843
(dp3844
g4
g13
(g17
S'\xd9\xa0.\rl\xe9\xd5?'
p3845
tp3846
Rp3847
sg5
I0
sg6
(lp3848
sg24
I-1
sg25
I-1
sbasg24
I-1
sg25
g13
(g55
S'\x01\x00\x00\x00\x00\x00\x00\x00'
p3849
tp3850
Rp3851
sbasg24
I-1
sg25
g13
(g55
S'\x00\x00\x00\x00\x00\x00\x00\x00'
p3852
tp3853
Rp3854
sbasg24
I-1
sg25
g13
(g55
S'\x0b\x00\x00\x00\x00\x00\x00\x00'
p3855
tp3856
Rp3857
sba(i__main__
tree
p3858
(dp3859
g4
g13
(g17
S'\xad1\xba\xbb\xfb\xcc\xee?'
p3860
tp3861
Rp3862
sg5
I1
sg6
(lp3863
sg24
I-1
sg25
I-1
sbasg24
I-1
sg25
g13
(g55
S'\x05\x00\x00\x00\x00\x00\x00\x00'
p3864
tp3865
Rp3866
sba(i__main__
tree
p3867
(dp3868
g4
F0.0
sg5
I-1
sg6
(lp3869
(i__main__
tree
p3870
(dp3871
g4
F0.0
sg5
I-1
sg6
(lp3872
(i__main__
tree
p3873
(dp3874
g4
F0.0
sg5
I-1
sg6
(lp3875
(i__main__
tree
p3876
(dp3877
g4
g13
(g17
S"\xba\x10\xec\\'_\xea?"
p3878
tp3879
Rp3880
sg5
I0
sg6
(lp3881
sg24
I-1
sg25
I-1
sba(i__main__
tree
p3882
(dp3883
g4
F0.0
sg5
I-1
sg6
(lp3884
(i__main__
tree
p3885
(dp3886
g4
g13
(g17
S'\xd9\xa0.\rl\xe9\xd5?'
p3887
tp3888
Rp3889
sg5
I1
sg6
(lp3890
sg24
I-1
sg25
I-1
sba(i__main__
tree
p3891
(dp3892
g4
g13
(g17
S'?\xd8\xfd\xccH\x10\xdc?'
p3893
tp3894
Rp3895
sg5
I0
sg6
(lp3896
sg24
I-1
sg25
I-1
sbasg24
I-1
sg25
g13
(g55
S'\x04\x00\x00\x00\x00\x00\x00\x00'
p3897
tp3898
Rp3899
sbasg24
I-1
sg25
g13
(g55
S'\x0b\x00\x00\x00\x00\x00\x00\x00'
p3900
tp3901
Rp3902
sba(i__main__
tree
p3903
(dp3904
g4
F0.0
sg5
I-1
sg6
(lp3905
(i__main__
tree
p3906
(dp3907
g4
g13
(g17
S'\xf6u\x8e;\xeb\xcd\xe9?'
p3908
tp3909
Rp3910
sg5
I1
sg6
(lp3911
sg24
I-1
sg25
I-1
sba(i__main__
tree
p3912
(dp3913
g4
F0.0
sg5
I-1
sg6
(lp3914
(i__main__
tree
p3915
(dp3916
g4
g13
(g17
S'\xd9\xa0.\rl\xe9\xd5?'
p3917
tp3918
Rp3919
sg5
I0
sg6
(lp3920
sg24
I-1
sg25
I-1
sba(i__main__
tree
p3921
(dp3922
g4
g13
(g17
S'\xd9\xa0.\rl\xe9\xd5?'
p3923
tp3924
Rp3925
sg5
I1
sg6
(lp3926
sg24
I-1
sg25
I-1
sbasg24
I-1
sg25
g13
(g55
S'\x0b\x00\x00\x00\x00\x00\x00\x00'
p3927
tp3928
Rp3929
sbasg24
I-1
sg25
g13
(g55
S'\x04\x00\x00\x00\x00\x00\x00\x00'
p3930
tp3931
Rp3932
sbasg24
I-1
sg25
g13
(g55
S'\x05\x00\x00\x00\x00\x00\x00\x00'
p3933
tp3934
Rp3935
sba(i__main__
tree
p3936
(dp3937
g4
g13
(g17
S'4\x19\xc8\x92\x9c\x95\xee?'
p3938
tp3939
Rp3940
sg5
I0
sg6
(lp3941
sg24
I-1
sg25
I-1
sbasg24
I-1
sg25
g13
(g55
S'\x00\x00\x00\x00\x00\x00\x00\x00'
p3942
tp3943
Rp3944
sbasg24
I-1
sg25
g13
(g55
S'\x13\x00\x00\x00\x00\x00\x00\x00'
p3945
tp3946
Rp3947
sbsS'3Versus6'
p3948
(i__main__
tree
p3949
(dp3950
g4
F0.0
sg5
I-1
sg6
(lp3951
(i__main__
tree
p3952
(dp3953
g4
F0.0
sg5
I-1
sg6
(lp3954
(i__main__
tree
p3955
(dp3956
g4
F0.0
sg5
I-1
sg6
(lp3957
(i__main__
tree
p3958
(dp3959
g4
F0.0
sg5
I-1
sg6
(lp3960
(i__main__
tree
p3961
(dp3962
g4
F0.0
sg5
I-1
sg6
(lp3963
(i__main__
tree
p3964
(dp3965
g4
g13
(g17
S'\x1e\x027\x96A\xa9\xe4?'
p3966
tp3967
Rp3968
sg5
I1
sg6
(lp3969
sg24
I-1
sg25
I-1
sba(i__main__
tree
p3970
(dp3971
g4
F0.0
sg5
I-1
sg6
(lp3972
(i__main__
tree
p3973
(dp3974
g4
F0.0
sg5
I-1
sg6
(lp3975
(i__main__
tree
p3976
(dp3977
g4
g13
(g17
S'\x1eV\x0b\xb5\x02p\xca?'
p3978
tp3979
Rp3980
sg5
I0
sg6
(lp3981
sg24
I-1
sg25
I-1
sba(i__main__
tree
p3982
(dp3983
g4
g13
(g17
S'\xc8\n\xbbvP8\xe6?'
p3984
tp3985
Rp3986
sg5
I1
sg6
(lp3987
sg24
I-1
sg25
I-1
sbasg24
I-1
sg25
g13
(g55
S'\x01\x00\x00\x00\x00\x00\x00\x00'
p3988
tp3989
Rp3990
sba(i__main__
tree
p3991
(dp3992
g4
F0.0
sg5
I-1
sg6
(lp3993
(i__main__
tree
p3994
(dp3995
g4
g13
(g17
S'\x1eV\x0b\xb5\x02p\xca?'
p3996
tp3997
Rp3998
sg5
I1
sg6
(lp3999
sg24
I-1
sg25
I-1
sba(i__main__
tree
p4000
(dp4001
g4
g13
(g17
S'\x88o\x05m\xcfN\xcc?'
p4002
tp4003
Rp4004
sg5
I0
sg6
(lp4005
sg24
I-1
sg25
I-1
sbasg24
I-1
sg25
g13
(g55
S'\x01\x00\x00\x00\x00\x00\x00\x00'
p4006
tp4007
Rp4008
sbasg24
I-1
sg25
g13
(g55
S'\x0f\x00\x00\x00\x00\x00\x00\x00'
p4009
tp4010
Rp4011
sbasg24
I-1
sg25
g13
(g55
S'\x04\x00\x00\x00\x00\x00\x00\x00'
p4012
tp4013
Rp4014
sba(i__main__
tree
p4015
(dp4016
g4
g13
(g17
S'\x8a\x99\xa8\xb7\xc6\xd5\xec?'
p4017
tp4018
Rp4019
sg5
I1
sg6
(lp4020
sg24
I-1
sg25
I-1
sbasg24
I-1
sg25
g13
(g55
S'\x19\x00\x00\x00\x00\x00\x00\x00'
p4021
tp4022
Rp4023
sba(i__main__
tree
p4024
(dp4025
g4
F0.0
sg5
I-1
sg6
(lp4026
(i__main__
tree
p4027
(dp4028
g4
g13
(g17
S'\\t|"c\x9e\xe5?'
p4029
tp4030
Rp4031
sg5
I0
sg6
(lp4032
sg24
I-1
sg25
I-1
sba(i__main__
tree
p4033
(dp4034
g4
g13
(g17
S'\x1eV\x0b\xb5\x02p\xca?'
p4035
tp4036
Rp4037
sg5
I1
sg6
(lp4038
sg24
I-1
sg25
I-1
sbasg24
I-1
sg25
g13
(g55
S'\x19\x00\x00\x00\x00\x00\x00\x00'
p4039
tp4040
Rp4041
sbasg24
I-1
sg25
g13
(g55
S'\x03\x00\x00\x00\x00\x00\x00\x00'
p4042
tp4043
Rp4044
sba(i__main__
tree
p4045
(dp4046
g4
g13
(g17
S'\x0f\x94,*z\x0f\xef?'
p4047
tp4048
Rp4049
sg5
I1
sg6
(lp4050
sg24
I-1
sg25
I-1
sbasg24
I-1
sg25
g13
(g55
S'\x1a\x00\x00\x00\x00\x00\x00\x00'
p4051
tp4052
Rp4053
sba(i__main__
tree
p4054
(dp4055
g4
F0.0
sg5
I-1
sg6
(lp4056
(i__main__
tree
p4057
(dp4058
g4
F0.0
sg5
I-1
sg6
(lp4059
(i__main__
tree
p4060
(dp4061
g4
g13
(g17
S'\xbe\x91j3\x83,\xee?'
p4062
tp4063
Rp4064
sg5
I0
sg6
(lp4065
sg24
I-1
sg25
I-1
sba(i__main__
tree
p4066
(dp4067
g4
F0.0
sg5
I-1
sg6
(lp4068
(i__main__
tree
p4069
(dp4070
g4
F0.0
sg5
I-1
sg6
(lp4071
(i__main__
tree
p4072
(dp4073
g4
F0.0
sg5
I-1
sg6
(lp4074
(i__main__
tree
p4075
(dp4076
g4
g13
(g17
S'\xda\xa0.\rl\xe9\xc5?'
p4077
tp4078
Rp4079
sg5
I0
sg6
(lp4080
sg24
I-1
sg25
I-1
sba(i__main__
tree
p4081
(dp4082
g4
g13
(g17
S'N\xc3A1\xbdR\xe0?'
p4083
tp4084
Rp4085
sg5
I1
sg6
(lp4086
sg24
I-1
sg25
I-1
sbasg24
I-1
sg25
g13
(g55
S'\x04\x00\x00\x00\x00\x00\x00\x00'
p4087
tp4088
Rp4089
sba(i__main__
tree
p4090
(dp4091
g4
F0.0
sg5
I-1
sg6
(lp4092
(i__main__
tree
p4093
(dp4094
g4
g13
(g17
S'?\xd8\xfd\xccH\x10\xdc?'
p4095
tp4096
Rp4097
sg5
I0
sg6
(lp4098
sg24
I-1
sg25
I-1
sba(i__main__
tree
p4099
(dp4100
g4
F0.0
sg5
I-1
sg6
(lp4101
(i__main__
tree
p4102
(dp4103
g4
g13
(g17
S'\x1eV\x0b\xb5\x02p\xca?'
p4104
tp4105
Rp4106
sg5
I0
sg6
(lp4107
sg24
I-1
sg25
I-1
sba(i__main__
tree
p4108
(dp4109
g4
g13
(g17
S'\x1eV\x0b\xb5\x02p\xca?'
p4110
tp4111
Rp4112
sg5
I1
sg6
(lp4113
sg24
I-1
sg25
I-1
sbasg24
I-1
sg25
g13
(g55
S'\x01\x00\x00\x00\x00\x00\x00\x00'
p4114
tp4115
Rp4116
sbasg24
I-1
sg25
g13
(g55
S'\x04\x00\x00\x00\x00\x00\x00\x00'
p4117
tp4118
Rp4119
sbasg24
I-1
sg25
g13
(g55
S'\x03\x00\x00\x00\x00\x00\x00\x00'
p4120
tp4121
Rp4122
sba(i__main__
tree
p4123
(dp4124
g4
g13
(g17
S'?\xd8\xfd\xccH\x10\xdc?'
p4125
tp4126
Rp4127
sg5
I0
sg6
(lp4128
sg24
I-1
sg25
I-1
sbasg24
I-1
sg25
g13
(g55
S'\x0f\x00\x00\x00\x00\x00\x00\x00'
p4129
tp4130
Rp4131
sbasg24
I-1
sg25
g13
(g55
S'\x19\x00\x00\x00\x00\x00\x00\x00'
p4132
tp4133
Rp4134
sba(i__main__
tree
p4135
(dp4136
g4
F0.0
sg5
I-1
sg6
(lp4137
(i__main__
tree
p4138
(dp4139
g4
F0.0
sg5
I-1
sg6
(lp4140
(i__main__
tree
p4141
(dp4142
g4
F0.0
sg5
I-1
sg6
(lp4143
(i__main__
tree
p4144
(dp4145
g4
F0.0
sg5
I-1
sg6
(lp4146
(i__main__
tree
p4147
(dp4148
g4
g13
(g17
S'\x1eV\x0b\xb5\x02p\xca?'
p4149
tp4150
Rp4151
sg5
I1
sg6
(lp4152
sg24
I-1
sg25
I-1
sba(i__main__
tree
p4153
(dp4154
g4
g13
(g17
S'\x1eV\x0b\xb5\x02p\xca?'
p4155
tp4156
Rp4157
sg5
I0
sg6
(lp4158
sg24
I-1
sg25
I-1
sbasg24
I-1
sg25
g13
(g55
S'\x01\x00\x00\x00\x00\x00\x00\x00'
p4159
tp4160
Rp4161
sba(i__main__
tree
p4162
(dp4163
g4
g13
(g17
S'\x08\xa6\xe0#\x95\xb7\xe7?'
p4164
tp4165
Rp4166
sg5
I1
sg6
(lp4167
sg24
I-1
sg25
I-1
sbasg24
I-1
sg25
g13
(g55
S'\x04\x00\x00\x00\x00\x00\x00\x00'
p4168
tp4169
Rp4170
sba(i__main__
tree
p4171
(dp4172
g4
F0.0
sg5
I-1
sg6
(lp4173
(i__main__
tree
p4174
(dp4175
g4
g13
(g17
S'\xda\xa0.\rl\xe9\xc5?'
p4176
tp4177
Rp4178
sg5
I0
sg6
(lp4179
sg24
I-1
sg25
I-1
sba(i__main__
tree
p4180
(dp4181
g4
g13
(g17
S'N\xc3A1\xbdR\xe0?'
p4182
tp4183
Rp4184
sg5
I0
sg6
(lp4185
sg24
I-1
sg25
I-1
sbasg24
I-1
sg25
g13
(g55
S'\x04\x00\x00\x00\x00\x00\x00\x00'
p4186
tp4187
Rp4188
sbasg24
I-1
sg25
g13
(g55
S'\x0f\x00\x00\x00\x00\x00\x00\x00'
p4189
tp4190
Rp4191
sba(i__main__
tree
p4192
(dp4193
g4
F0.0
sg5
I-1
sg6
(lp4194
(i__main__
tree
p4195
(dp4196
g4
g13
(g17
S'\x1e\x027\x96A\xa9\xe4?'
p4197
tp4198
Rp4199
sg5
I0
sg6
(lp4200
sg24
I-1
sg25
I-1
sba(i__main__
tree
p4201
(dp4202
g4
F0.0
sg5
I-1
sg6
(lp4203
(i__main__
tree
p4204
(dp4205
g4
F0.0
sg5
I-1
sg6
(lp4206
(i__main__
tree
p4207
(dp4208
g4
g13
(g17
S'\xf4\xa4\xe2\xc9\x1b|\xd8?'
p4209
tp4210
Rp4211
sg5
I0
sg6
(lp4212
sg24
I-1
sg25
I-1
sba(i__main__
tree
p4213
(dp4214
g4
g13
(g17
S'\x1eV\x0b\xb5\x02p\xca?'
p4215
tp4216
Rp4217
sg5
I0
sg6
(lp4218
sg24
I-1
sg25
I-1
sbasg24
I-1
sg25
g13
(g55
S'\x0f\x00\x00\x00\x00\x00\x00\x00'
p4219
tp4220
Rp4221
sba(i__main__
tree
p4222
(dp4223
g4
g13
(g17
S'\xda\xa0.\rl\xe9\xc5?'
p4224
tp4225
Rp4226
sg5
I0
sg6
(lp4227
sg24
I-1
sg25
I-1
sbasg24
I-1
sg25
g13
(g55
S'\x04\x00\x00\x00\x00\x00\x00\x00'
p4228
tp4229
Rp4230
sbasg24
I-1
sg25
g13
(g55
S'\x01\x00\x00\x00\x00\x00\x00\x00'
p4231
tp4232
Rp4233
sbasg24
I-1
sg25
g13
(g55
S'\x03\x00\x00\x00\x00\x00\x00\x00'
p4234
tp4235
Rp4236
sbasg24
I-1
sg25
g13
(g55
S'\x1a\x00\x00\x00\x00\x00\x00\x00'
p4237
tp4238
Rp4239
sbasg24
I-1
sg25
g13
(g55
S'\x13\x00\x00\x00\x00\x00\x00\x00'
p4240
tp4241
Rp4242
sbsS'1Versus3'
p4243
(i__main__
tree
p4244
(dp4245
g4
F0.0
sg5
I-1
sg6
(lp4246
(i__main__
tree
p4247
(dp4248
g4
F0.0
sg5
I-1
sg6
(lp4249
(i__main__
tree
p4250
(dp4251
g4
g13
(g17
S'i\x1dm\xcbpf\xee?'
p4252
tp4253
Rp4254
sg5
I0
sg6
(lp4255
sg24
I-1
sg25
I-1
sba(i__main__
tree
p4256
(dp4257
g4
F0.0
sg5
I-1
sg6
(lp4258
(i__main__
tree
p4259
(dp4260
g4
F0.0
sg5
I-1
sg6
(lp4261
(i__main__
tree
p4262
(dp4263
g4
F0.0
sg5
I-1
sg6
(lp4264
(i__main__
tree
p4265
(dp4266
g4
F0.0
sg5
I-1
sg6
(lp4267
(i__main__
tree
p4268
(dp4269
g4
g13
(g17
S'\xd9\xa0.\rl\xe9\xd5?'
p4270
tp4271
Rp4272
sg5
I1
sg6
(lp4273
sg24
I-1
sg25
I-1
sba(i__main__
tree
p4274
(dp4275
g4
g13
(g17
S'\xda\xa0.\rl\xe9\xc5?'
p4276
tp4277
Rp4278
sg5
I0
sg6
(lp4279
sg24
I-1
sg25
I-1
sbasg24
I-1
sg25
g13
(g55
S'\x06\x00\x00\x00\x00\x00\x00\x00'
p4280
tp4281
Rp4282
sba(i__main__
tree
p4283
(dp4284
g4
g13
(g17
S'?\xd8\xfd\xccH\x10\xdc?'
p4285
tp4286
Rp4287
sg5
I0
sg6
(lp4288
sg24
I-1
sg25
I-1
sbasg24
I-1
sg25
g13
(g55
S'\x10\x00\x00\x00\x00\x00\x00\x00'
p4289
tp4290
Rp4291
sba(i__main__
tree
p4292
(dp4293
g4
g13
(g17
S'd\xb0_4Wm\xe6?'
p4294
tp4295
Rp4296
sg5
I1
sg6
(lp4297
sg24
I-1
sg25
I-1
sbasg24
I-1
sg25
g13
(g55
S'\x01\x00\x00\x00\x00\x00\x00\x00'
p4298
tp4299
Rp4300
sba(i__main__
tree
p4301
(dp4302
g4
g13
(g17
S'\n#)\ro=\xe8?'
p4303
tp4304
Rp4305
sg5
I0
sg6
(lp4306
sg24
I-1
sg25
I-1
sbasg24
I-1
sg25
g13
(g55
S'\x17\x00\x00\x00\x00\x00\x00\x00'
p4307
tp4308
Rp4309
sbasg24
I-1
sg25
g13
(g55
S'\x18\x00\x00\x00\x00\x00\x00\x00'
p4310
tp4311
Rp4312
sba(i__main__
tree
p4313
(dp4314
g4
F0.0
sg5
I-1
sg6
(lp4315
(i__main__
tree
p4316
(dp4317
g4
F0.0
sg5
I-1
sg6
(lp4318
(i__main__
tree
p4319
(dp4320
g4
F0.0
sg5
I-1
sg6
(lp4321
(i__main__
tree
p4322
(dp4323
g4
F0.0
sg5
I-1
sg6
(lp4324
(i__main__
tree
p4325
(dp4326
g4
F0.0
sg5
I-1
sg6
(lp4327
(i__main__
tree
p4328
(dp4329
g4
g13
(g17
S'\xf4\xa4\xe2\xc9\x1b|\xd8?'
p4330
tp4331
Rp4332
sg5
I1
sg6
(lp4333
sg24
I-1
sg25
I-1
sba(i__main__
tree
p4334
(dp4335
g4
g13
(g17
S'\x1eV\x0b\xb5\x02p\xca?'
p4336
tp4337
Rp4338
sg5
I1
sg6
(lp4339
sg24
I-1
sg25
I-1
sbasg24
I-1
sg25
g13
(g55
S'\x01\x00\x00\x00\x00\x00\x00\x00'
p4340
tp4341
Rp4342
sba(i__main__
tree
p4343
(dp4344
g4
g13
(g17
S'\xf6u\x8e;\xeb\xcd\xe9?'
p4345
tp4346
Rp4347
sg5
I1
sg6
(lp4348
sg24
I-1
sg25
I-1
sbasg24
I-1
sg25
g13
(g55
S'\x18\x00\x00\x00\x00\x00\x00\x00'
p4349
tp4350
Rp4351
sba(i__main__
tree
p4352
(dp4353
g4
F0.0
sg5
I-1
sg6
(lp4354
(i__main__
tree
p4355
(dp4356
g4
g13
(g17
S'\x1c\xa3\x87SO\x82\xe3?'
p4357
tp4358
Rp4359
sg5
I0
sg6
(lp4360
sg24
I-1
sg25
I-1
sba(i__main__
tree
p4361
(dp4362
g4
F0.0
sg5
I-1
sg6
(lp4363
(i__main__
tree
p4364
(dp4365
g4
F0.0
sg5
I-1
sg6
(lp4366
(i__main__
tree
p4367
(dp4368
g4
g13
(g17
S'\x1eV\x0b\xb5\x02p\xca?'
p4369
tp4370
Rp4371
sg5
I1
sg6
(lp4372
sg24
I-1
sg25
I-1
sba(i__main__
tree
p4373
(dp4374
g4
g13
(g17
S'\x1eV\x0b\xb5\x02p\xca?'
p4375
tp4376
Rp4377
sg5
I0
sg6
(lp4378
sg24
I-1
sg25
I-1
sbasg24
I-1
sg25
g13
(g55
S'\x10\x00\x00\x00\x00\x00\x00\x00'
p4379
tp4380
Rp4381
sba(i__main__
tree
p4382
(dp4383
g4
g13
(g17
S'\x1eV\x0b\xb5\x02p\xca?'
p4384
tp4385
Rp4386
sg5
I1
sg6
(lp4387
sg24
I-1
sg25
I-1
sbasg24
I-1
sg25
g13
(g55
S'\x01\x00\x00\x00\x00\x00\x00\x00'
p4388
tp4389
Rp4390
sbasg24
I-1
sg25
g13
(g55
S'\x18\x00\x00\x00\x00\x00\x00\x00'
p4391
tp4392
Rp4393
sbasg24
I-1
sg25
g13
(g55
S'\x17\x00\x00\x00\x00\x00\x00\x00'
p4394
tp4395
Rp4396
sba(i__main__
tree
p4397
(dp4398
g4
F0.0
sg5
I-1
sg6
(lp4399
(i__main__
tree
p4400
(dp4401
g4
F0.0
sg5
I-1
sg6
(lp4402
(i__main__
tree
p4403
(dp4404
g4
g13
(g17
S'\x96\xb2\x9b\xc5\xecA\xe0?'
p4405
tp4406
Rp4407
sg5
I0
sg6
(lp4408
sg24
I-1
sg25
I-1
sba(i__main__
tree
p4409
(dp4410
g4
g13
(g17
S'?\xd8\xfd\xccH\x10\xdc?'
p4411
tp4412
Rp4413
sg5
I0
sg6
(lp4414
sg24
I-1
sg25
I-1
sbasg24
I-1
sg25
g13
(g55
S'\x17\x00\x00\x00\x00\x00\x00\x00'
p4415
tp4416
Rp4417
sba(i__main__
tree
p4418
(dp4419
g4
g13
(g17
S'\xfc\xc9\xf4J\xa5\x18\xe2?'
p4420
tp4421
Rp4422
sg5
I0
sg6
(lp4423
sg24
I-1
sg25
I-1
sbasg24
I-1
sg25
g13
(g55
S'\x10\x00\x00\x00\x00\x00\x00\x00'
p4424
tp4425
Rp4426
sbasg24
I-1
sg25
g13
(g55
S'\x06\x00\x00\x00\x00\x00\x00\x00'
p4427
tp4428
Rp4429
sba(i__main__
tree
p4430
(dp4431
g4
F0.0
sg5
I-1
sg6
(lp4432
(i__main__
tree
p4433
(dp4434
g4
F0.0
sg5
I-1
sg6
(lp4435
(i__main__
tree
p4436
(dp4437
g4
F0.0
sg5
I-1
sg6
(lp4438
(i__main__
tree
p4439
(dp4440
g4
g13
(g17
S'\xd9\xa0.\rl\xe9\xd5?'
p4441
tp4442
Rp4443
sg5
I1
sg6
(lp4444
sg24
I-1
sg25
I-1
sba(i__main__
tree
p4445
(dp4446
g4
g13
(g17
S'\x1eV\x0b\xb5\x02p\xca?'
p4447
tp4448
Rp4449
sg5
I0
sg6
(lp4450
sg24
I-1
sg25
I-1
sbasg24
I-1
sg25
g13
(g55
S'\x10\x00\x00\x00\x00\x00\x00\x00'
p4451
tp4452
Rp4453
sba(i__main__
tree
p4454
(dp4455
g4
F0.0
sg5
I-1
sg6
(lp4456
(i__main__
tree
p4457
(dp4458
g4
g13
(g17
S'\x08\xa6\xe0#\x95\xb7\xe7?'
p4459
tp4460
Rp4461
sg5
I1
sg6
(lp4462
sg24
I-1
sg25
I-1
sba(i__main__
tree
p4463
(dp4464
g4
F0.0
sg5
I-1
sg6
(lp4465
(i__main__
tree
p4466
(dp4467
g4
F0.0
sg5
I-1
sg6
(lp4468
(i__main__
tree
p4469
(dp4470
g4
g13
(g17
S'\x02\x1cs\xc5\x9f\xa7\xd8?'
p4471
tp4472
Rp4473
sg5
I1
sg6
(lp4474
sg24
I-1
sg25
I-1
sba(i__main__
tree
p4475
(dp4476
g4
g13
(g17
S'\x1eV\x0b\xb5\x02p\xca?'
p4477
tp4478
Rp4479
sg5
I1
sg6
(lp4480
sg24
I-1
sg25
I-1
sbasg24
I-1
sg25
g13
(g55
S'\x17\x00\x00\x00\x00\x00\x00\x00'
p4481
tp4482
Rp4483
sba(i__main__
tree
p4484
(dp4485
g4
g13
(g17
S'\xd9\xa0.\rl\xe9\xd5?'
p4486
tp4487
Rp4488
sg5
I1
sg6
(lp4489
sg24
I-1
sg25
I-1
sbasg24
I-1
sg25
g13
(g55
S'\x10\x00\x00\x00\x00\x00\x00\x00'
p4490
tp4491
Rp4492
sbasg24
I-1
sg25
g13
(g55
S'\x06\x00\x00\x00\x00\x00\x00\x00'
p4493
tp4494
Rp4495
sbasg24
I-1
sg25
g13
(g55
S'\x18\x00\x00\x00\x00\x00\x00\x00'
p4496
tp4497
Rp4498
sba(i__main__
tree
p4499
(dp4500
g4
g13
(g17
S'\xa4\xda\xca`\x07"\xee?'
p4501
tp4502
Rp4503
sg5
I1
sg6
(lp4504
sg24
I-1
sg25
I-1
sbasg24
I-1
sg25
g13
(g55
S'\x01\x00\x00\x00\x00\x00\x00\x00'
p4505
tp4506
Rp4507
sbasg24
I-1
sg25
g13
(g55
S'\x00\x00\x00\x00\x00\x00\x00\x00'
p4508
tp4509
Rp4510
sbasg24
I-1
sg25
g13
(g55
S'\x13\x00\x00\x00\x00\x00\x00\x00'
p4511
tp4512
Rp4513
sbsS'1Versus2'
p4514
(i__main__
tree
p4515
(dp4516
g4
F0.0
sg5
I-1
sg6
(lp4517
(i__main__
tree
p4518
(dp4519
g4
F0.0
sg5
I-1
sg6
(lp4520
(i__main__
tree
p4521
(dp4522
g4
F0.0
sg5
I-1
sg6
(lp4523
(i__main__
tree
p4524
(dp4525
g4
F0.0
sg5
I-1
sg6
(lp4526
(i__main__
tree
p4527
(dp4528
g4
F0.0
sg5
I-1
sg6
(lp4529
(i__main__
tree
p4530
(dp4531
g4
F0.0
sg5
I-1
sg6
(lp4532
(i__main__
tree
p4533
(dp4534
g4
g13
(g17
S'"Fz\x14d\x1e\xe7?'
p4535
tp4536
Rp4537
sg5
I1
sg6
(lp4538
sg24
I-1
sg25
I-1
sba(i__main__
tree
p4539
(dp4540
g4
g13
(g17
S')\x90\xfe\xdd\x85\xb5\xd2?'
p4541
tp4542
Rp4543
sg5
I1
sg6
(lp4544
sg24
I-1
sg25
I-1
sbasg24
I-1
sg25
g13
(g55
S'+\x00\x00\x00\x00\x00\x00\x00'
p4545
tp4546
Rp4547
sba(i__main__
tree
p4548
(dp4549
g4
F0.0
sg5
I-1
sg6
(lp4550
(i__main__
tree
p4551
(dp4552
g4
g13
(g17
S'Z\xd2\x91\xcb\xe6=\xd0?'
p4553
tp4554
Rp4555
sg5
I0
sg6
(lp4556
sg24
I-1
sg25
I-1
sba(i__main__
tree
p4557
(dp4558
g4
g13
(g17
S'\x1eV\x0b\xb5\x02p\xca?'
p4559
tp4560
Rp4561
sg5
I1
sg6
(lp4562
sg24
I-1
sg25
I-1
sbasg24
I-1
sg25
g13
(g55
S',\x00\x00\x00\x00\x00\x00\x00'
p4563
tp4564
Rp4565
sbasg24
I-1
sg25
g13
(g55
S'\x06\x00\x00\x00\x00\x00\x00\x00'
p4566
tp4567
Rp4568
sba(i__main__
tree
p4569
(dp4570
g4
F0.0
sg5
I-1
sg6
(lp4571
(i__main__
tree
p4572
(dp4573
g4
F0.0
sg5
I-1
sg6
(lp4574
(i__main__
tree
p4575
(dp4576
g4
g13
(g17
S'\xb0\xad\xf5uh\xc0\xd2?'
p4577
tp4578
Rp4579
sg5
I0
sg6
(lp4580
sg24
I-1
sg25
I-1
sba(i__main__
tree
p4581
(dp4582
g4
g13
(g17
S'\xda\xa0.\rl\xe9\xc5?'
p4583
tp4584
Rp4585
sg5
I0
sg6
(lp4586
sg24
I-1
sg25
I-1
sbasg24
I-1
sg25
g13
(g55
S'\x06\x00\x00\x00\x00\x00\x00\x00'
p4587
tp4588
Rp4589
sba(i__main__
tree
p4590
(dp4591
g4
F0.0
sg5
I-1
sg6
(lp4592
(i__main__
tree
p4593
(dp4594
g4
g13
(g17
S'\xd9\xa0.\rl\xe9\xd5?'
p4595
tp4596
Rp4597
sg5
I0
sg6
(lp4598
sg24
I-1
sg25
I-1
sba(i__main__
tree
p4599
(dp4600
g4
g13
(g17
S'\xda\xa0.\rl\xe9\xc5?'
p4601
tp4602
Rp4603
sg5
I0
sg6
(lp4604
sg24
I-1
sg25
I-1
sbasg24
I-1
sg25
g13
(g55
S'\x06\x00\x00\x00\x00\x00\x00\x00'
p4605
tp4606
Rp4607
sbasg24
I-1
sg25
g13
(g55
S',\x00\x00\x00\x00\x00\x00\x00'
p4608
tp4609
Rp4610
sbasg24
I-1
sg25
g13
(g55
S'\x17\x00\x00\x00\x00\x00\x00\x00'
p4611
tp4612
Rp4613
sba(i__main__
tree
p4614
(dp4615
g4
g13
(g17
S'"Fz\x14d\x1e\xe7?'
p4616
tp4617
Rp4618
sg5
I0
sg6
(lp4619
sg24
I-1
sg25
I-1
sbasg24
I-1
sg25
g13
(g55
S'\x16\x00\x00\x00\x00\x00\x00\x00'
p4620
tp4621
Rp4622
sba(i__main__
tree
p4623
(dp4624
g4
F0.0
sg5
I-1
sg6
(lp4625
(i__main__
tree
p4626
(dp4627
g4
F0.0
sg5
I-1
sg6
(lp4628
(i__main__
tree
p4629
(dp4630
g4
F0.0
sg5
I-1
sg6
(lp4631
(i__main__
tree
p4632
(dp4633
g4
F0.0
sg5
I-1
sg6
(lp4634
(i__main__
tree
p4635
(dp4636
g4
F0.0
sg5
I-1
sg6
(lp4637
(i__main__
tree
p4638
(dp4639
g4
g13
(g17
S')\x90\xfe\xdd\x85\xb5\xd2?'
p4640
tp4641
Rp4642
sg5
I0
sg6
(lp4643
sg24
I-1
sg25
I-1
sba(i__main__
tree
p4644
(dp4645
g4
g13
(g17
S'\xd9\xa0.\rl\xe9\xd5?'
p4646
tp4647
Rp4648
sg5
I0
sg6
(lp4649
sg24
I-1
sg25
I-1
sbasg24
I-1
sg25
g13
(g55
S'+\x00\x00\x00\x00\x00\x00\x00'
p4650
tp4651
Rp4652
sba(i__main__
tree
p4653
(dp4654
g4
g13
(g17
S'\x96\x8e\xd5\x87\x0c1\xe8?'
p4655
tp4656
Rp4657
sg5
I0
sg6
(lp4658
sg24
I-1
sg25
I-1
sbasg24
I-1
sg25
g13
(g55
S'\x06\x00\x00\x00\x00\x00\x00\x00'
p4659
tp4660
Rp4661
sba(i__main__
tree
p4662
(dp4663
g4
g13
(g17
S'N\xc3A1\xbdR\xe0?'
p4664
tp4665
Rp4666
sg5
I0
sg6
(lp4667
sg24
I-1
sg25
I-1
sbasg24
I-1
sg25
g13
(g55
S'\x16\x00\x00\x00\x00\x00\x00\x00'
p4668
tp4669
Rp4670
sba(i__main__
tree
p4671
(dp4672
g4
F0.0
sg5
I-1
sg6
(lp4673
(i__main__
tree
p4674
(dp4675
g4
g13
(g17
S'\x1eV\x0b\xb5\x02p\xca?'
p4676
tp4677
Rp4678
sg5
I0
sg6
(lp4679
sg24
I-1
sg25
I-1
sba(i__main__
tree
p4680
(dp4681
g4
g13
(g17
S'\xda\xa0.\rl\xe9\xc5?'
p4682
tp4683
Rp4684
sg5
I0
sg6
(lp4685
sg24
I-1
sg25
I-1
sbasg24
I-1
sg25
g13
(g55
S'\x06\x00\x00\x00\x00\x00\x00\x00'
p4686
tp4687
Rp4688
sbasg24
I-1
sg25
g13
(g55
S',\x00\x00\x00\x00\x00\x00\x00'
p4689
tp4690
Rp4691
sba(i__main__
tree
p4692
(dp4693
g4
F0.0
sg5
I-1
sg6
(lp4694
(i__main__
tree
p4695
(dp4696
g4
g13
(g17
S'\x8a\x99\xa8\xb7\xc6\xd5\xec?'
p4697
tp4698
Rp4699
sg5
I0
sg6
(lp4700
sg24
I-1
sg25
I-1
sba(i__main__
tree
p4701
(dp4702
g4
F0.0
sg5
I-1
sg6
(lp4703
(i__main__
tree
p4704
(dp4705
g4
F0.0
sg5
I-1
sg6
(lp4706
(i__main__
tree
p4707
(dp4708
g4
g13
(g17
S'\xbe\xa8\x91e(\r\xeb?'
p4709
tp4710
Rp4711
sg5
I0
sg6
(lp4712
sg24
I-1
sg25
I-1
sba(i__main__
tree
p4713
(dp4714
g4
g13
(g17
S'\x96\xb2\x9b\xc5\xecA\xe0?'
p4715
tp4716
Rp4717
sg5
I0
sg6
(lp4718
sg24
I-1
sg25
I-1
sbasg24
I-1
sg25
g13
(g55
S',\x00\x00\x00\x00\x00\x00\x00'
p4719
tp4720
Rp4721
sba(i__main__
tree
p4722
(dp4723
g4
F0.0
sg5
I-1
sg6
(lp4724
(i__main__
tree
p4725
(dp4726
g4
g13
(g17
S')\x90\xfe\xdd\x85\xb5\xd2?'
p4727
tp4728
Rp4729
sg5
I0
sg6
(lp4730
sg24
I-1
sg25
I-1
sba(i__main__
tree
p4731
(dp4732
g4
g13
(g17
S'\xd9\xa0.\rl\xe9\xd5?'
p4733
tp4734
Rp4735
sg5
I0
sg6
(lp4736
sg24
I-1
sg25
I-1
sbasg24
I-1
sg25
g13
(g55
S',\x00\x00\x00\x00\x00\x00\x00'
p4737
tp4738
Rp4739
sbasg24
I-1
sg25
g13
(g55
S'+\x00\x00\x00\x00\x00\x00\x00'
p4740
tp4741
Rp4742
sbasg24
I-1
sg25
g13
(g55
S'\x16\x00\x00\x00\x00\x00\x00\x00'
p4743
tp4744
Rp4745
sbasg24
I-1
sg25
g13
(g55
S'\x17\x00\x00\x00\x00\x00\x00\x00'
p4746
tp4747
Rp4748
sbasg24
I-1
sg25
g13
(g55
S'\x03\x00\x00\x00\x00\x00\x00\x00'
p4749
tp4750
Rp4751
sba(i__main__
tree
p4752
(dp4753
g4
F0.0
sg5
I-1
sg6
(lp4754
(i__main__
tree
p4755
(dp4756
g4
g13
(g17
S'\x98q\xc1\xeb\x9c\x93\xee?'
p4757
tp4758
Rp4759
sg5
I1
sg6
(lp4760
sg24
I-1
sg25
I-1
sba(i__main__
tree
p4761
(dp4762
g4
F0.0
sg5
I-1
sg6
(lp4763
(i__main__
tree
p4764
(dp4765
g4
F0.0
sg5
I-1
sg6
(lp4766
(i__main__
tree
p4767
(dp4768
g4
F0.0
sg5
I-1
sg6
(lp4769
(i__main__
tree
p4770
(dp4771
g4
F0.0
sg5
I-1
sg6
(lp4772
(i__main__
tree
p4773
(dp4774
g4
g13
(g17
S'\\t|"c\x9e\xe5?'
p4775
tp4776
Rp4777
sg5
I1
sg6
(lp4778
sg24
I-1
sg25
I-1
sba(i__main__
tree
p4779
(dp4780
g4
F0.0
sg5
I-1
sg6
(lp4781
(i__main__
tree
p4782
(dp4783
g4
g13
(g17
S'\xda\xa0.\rl\xe9\xc5?'
p4784
tp4785
Rp4786
sg5
I0
sg6
(lp4787
sg24
I-1
sg25
I-1
sba(i__main__
tree
p4788
(dp4789
g4
g13
(g17
S'\x1eV\x0b\xb5\x02p\xca?'
p4790
tp4791
Rp4792
sg5
I1
sg6
(lp4793
sg24
I-1
sg25
I-1
sbasg24
I-1
sg25
g13
(g55
S'\x16\x00\x00\x00\x00\x00\x00\x00'
p4794
tp4795
Rp4796
sbasg24
I-1
sg25
g13
(g55
S'+\x00\x00\x00\x00\x00\x00\x00'
p4797
tp4798
Rp4799
sba(i__main__
tree
p4800
(dp4801
g4
F0.0
sg5
I-1
sg6
(lp4802
(i__main__
tree
p4803
(dp4804
g4
F0.0
sg5
I-1
sg6
(lp4805
(i__main__
tree
p4806
(dp4807
g4
g13
(g17
S',C!\xab;\xf4\xdc?'
p4808
tp4809
Rp4810
sg5
I0
sg6
(lp4811
sg24
I-1
sg25
I-1
sba(i__main__
tree
p4812
(dp4813
g4
g13
(g17
S'?\xd8\xfd\xccH\x10\xdc?'
p4814
tp4815
Rp4816
sg5
I0
sg6
(lp4817
sg24
I-1
sg25
I-1
sbasg24
I-1
sg25
g13
(g55
S'\x16\x00\x00\x00\x00\x00\x00\x00'
p4818
tp4819
Rp4820
sba(i__main__
tree
p4821
(dp4822
g4
g13
(g17
S'\x1c\xa3\x87SO\x82\xe3?'
p4823
tp4824
Rp4825
sg5
I1
sg6
(lp4826
sg24
I-1
sg25
I-1
sbasg24
I-1
sg25
g13
(g55
S'+\x00\x00\x00\x00\x00\x00\x00'
p4827
tp4828
Rp4829
sbasg24
I-1
sg25
g13
(g55
S'\x17\x00\x00\x00\x00\x00\x00\x00'
p4830
tp4831
Rp4832
sba(i__main__
tree
p4833
(dp4834
g4
g13
(g17
S'\x1e\x027\x96A\xa9\xe4?'
p4835
tp4836
Rp4837
sg5
I0
sg6
(lp4838
sg24
I-1
sg25
I-1
sbasg24
I-1
sg25
g13
(g55
S'\x06\x00\x00\x00\x00\x00\x00\x00'
p4839
tp4840
Rp4841
sba(i__main__
tree
p4842
(dp4843
g4
g13
(g17
S'\\t|"c\x9e\xe5?'
p4844
tp4845
Rp4846
sg5
I1
sg6
(lp4847
sg24
I-1
sg25
I-1
sbasg24
I-1
sg25
g13
(g55
S',\x00\x00\x00\x00\x00\x00\x00'
p4848
tp4849
Rp4850
sbasg24
I-1
sg25
g13
(g55
S'\x03\x00\x00\x00\x00\x00\x00\x00'
p4851
tp4852
Rp4853
sbasg24
I-1
sg25
g13
(g55
S'\x08\x00\x00\x00\x00\x00\x00\x00'
p4854
tp4855
Rp4856
sbsS'1Versus5'
p4857
(i__main__
tree
p4858
(dp4859
g4
F0.0
sg5
I-1
sg6
(lp4860
(i__main__
tree
p4861
(dp4862
g4
F0.0
sg5
I-1
sg6
(lp4863
(i__main__
tree
p4864
(dp4865
g4
F0.0
sg5
I-1
sg6
(lp4866
(i__main__
tree
p4867
(dp4868
g4
F0.0
sg5
I-1
sg6
(lp4869
(i__main__
tree
p4870
(dp4871
g4
F0.0
sg5
I-1
sg6
(lp4872
(i__main__
tree
p4873
(dp4874
g4
F0.0
sg5
I-1
sg6
(lp4875
(i__main__
tree
p4876
(dp4877
g4
F0.0
sg5
I-1
sg6
(lp4878
(i__main__
tree
p4879
(dp4880
g4
g13
(g17
S'\x1f?\xa1E\x8d\xce\xe4?'
p4881
tp4882
Rp4883
sg5
I1
sg6
(lp4884
sg24
I-1
sg25
I-1
sba(i__main__
tree
p4885
(dp4886
g4
g13
(g17
S'\xd9\xa0.\rl\xe9\xd5?'
p4887
tp4888
Rp4889
sg5
I1
sg6
(lp4890
sg24
I-1
sg25
I-1
sbasg24
I-1
sg25
g13
(g55
S'\x0e\x00\x00\x00\x00\x00\x00\x00'
p4891
tp4892
Rp4893
sba(i__main__
tree
p4894
(dp4895
g4
g13
(g17
S'N\xc3A1\xbdR\xe0?'
p4896
tp4897
Rp4898
sg5
I1
sg6
(lp4899
sg24
I-1
sg25
I-1
sbasg24
I-1
sg25
g13
(g55
S'\x16\x00\x00\x00\x00\x00\x00\x00'
p4900
tp4901
Rp4902
sba(i__main__
tree
p4903
(dp4904
g4
F0.0
sg5
I-1
sg6
(lp4905
(i__main__
tree
p4906
(dp4907
g4
F0.0
sg5
I-1
sg6
(lp4908
(i__main__
tree
p4909
(dp4910
g4
g13
(g17
S')\x90\xfe\xdd\x85\xb5\xd2?'
p4911
tp4912
Rp4913
sg5
I0
sg6
(lp4914
sg24
I-1
sg25
I-1
sba(i__main__
tree
p4915
(dp4916
g4
g13
(g17
S'\xda\xa0.\rl\xe9\xc5?'
p4917
tp4918
Rp4919
sg5
I0
sg6
(lp4920
sg24
I-1
sg25
I-1
sbasg24
I-1
sg25
g13
(g55
S'\x16\x00\x00\x00\x00\x00\x00\x00'
p4921
tp4922
Rp4923
sba(i__main__
tree
p4924
(dp4925
g4
F0.0
sg5
I-1
sg6
(lp4926
(i__main__
tree
p4927
(dp4928
g4
g13
(g17
S'\xda\xa0.\rl\xe9\xc5?'
p4929
tp4930
Rp4931
sg5
I0
sg6
(lp4932
sg24
I-1
sg25
I-1
sba(i__main__
tree
p4933
(dp4934
g4
g13
(g17
S'\x1eV\x0b\xb5\x02p\xca?'
p4935
tp4936
Rp4937
sg5
I0
sg6
(lp4938
sg24
I-1
sg25
I-1
sbasg24
I-1
sg25
g13
(g55
S'\x16\x00\x00\x00\x00\x00\x00\x00'
p4939
tp4940
Rp4941
sbasg24
I-1
sg25
g13
(g55
S'\x0e\x00\x00\x00\x00\x00\x00\x00'
p4942
tp4943
Rp4944
sbasg24
I-1
sg25
g13
(g55
S'\x03\x00\x00\x00\x00\x00\x00\x00'
p4945
tp4946
Rp4947
sba(i__main__
tree
p4948
(dp4949
g4
F0.0
sg5
I-1
sg6
(lp4950
(i__main__
tree
p4951
(dp4952
g4
F0.0
sg5
I-1
sg6
(lp4953
(i__main__
tree
p4954
(dp4955
g4
g13
(g17
S'8\xd1\xd3\xa3U\xc8\xde?'
p4956
tp4957
Rp4958
sg5
I1
sg6
(lp4959
sg24
I-1
sg25
I-1
sba(i__main__
tree
p4960
(dp4961
g4
g13
(g17
S'\\t|"c\x9e\xe5?'
p4962
tp4963
Rp4964
sg5
I1
sg6
(lp4965
sg24
I-1
sg25
I-1
sbasg24
I-1
sg25
g13
(g55
S'\x16\x00\x00\x00\x00\x00\x00\x00'
p4966
tp4967
Rp4968
sba(i__main__
tree
p4969
(dp4970
g4
g13
(g17
S"\xba\x10\xec\\'_\xea?"
p4971
tp4972
Rp4973
sg5
I1
sg6
(lp4974
sg24
I-1
sg25
I-1
sbasg24
I-1
sg25
g13
(g55
S'\x0e\x00\x00\x00\x00\x00\x00\x00'
p4975
tp4976
Rp4977
sbasg24
I-1
sg25
g13
(g55
S'\x00\x00\x00\x00\x00\x00\x00\x00'
p4978
tp4979
Rp4980
sba(i__main__
tree
p4981
(dp4982
g4
F0.0
sg5
I-1
sg6
(lp4983
(i__main__
tree
p4984
(dp4985
g4
F0.0
sg5
I-1
sg6
(lp4986
(i__main__
tree
p4987
(dp4988
g4
F0.0
sg5
I-1
sg6
(lp4989
(i__main__
tree
p4990
(dp4991
g4
g13
(g17
S'\x1e\x027\x96A\xa9\xe4?'
p4992
tp4993
Rp4994
sg5
I1
sg6
(lp4995
sg24
I-1
sg25
I-1
sba(i__main__
tree
p4996
(dp4997
g4
F0.0
sg5
I-1
sg6
(lp4998
(i__main__
tree
p4999
(dp5000
g4
g13
(g17
S'\xe6c\xaa\xf5i\xef\xe3?'
p5001
tp5002
Rp5003
sg5
I1
sg6
(lp5004
sg24
I-1
sg25
I-1
sba(i__main__
tree
p5005
(dp5006
g4
g13
(g17
S'\x1eV\x0b\xb5\x02p\xca?'
p5007
tp5008
Rp5009
sg5
I1
sg6
(lp5010
sg24
I-1
sg25
I-1
sbasg24
I-1
sg25
g13
(g55
S'\x16\x00\x00\x00\x00\x00\x00\x00'
p5011
tp5012
Rp5013
sbasg24
I-1
sg25
g13
(g55
S'\x03\x00\x00\x00\x00\x00\x00\x00'
p5014
tp5015
Rp5016
sba(i__main__
tree
p5017
(dp5018
g4
g13
(g17
S'\\t|"c\x9e\xe5?'
p5019
tp5020
Rp5021
sg5
I1
sg6
(lp5022
sg24
I-1
sg25
I-1
sbasg24
I-1
sg25
g13
(g55
S'\x00\x00\x00\x00\x00\x00\x00\x00'
p5023
tp5024
Rp5025
sba(i__main__
tree
p5026
(dp5027
g4
g13
(g17
S'\xbe\xa8\x91e(\r\xeb?'
p5028
tp5029
Rp5030
sg5
I1
sg6
(lp5031
sg24
I-1
sg25
I-1
sbasg24
I-1
sg25
g13
(g55
S'\x0e\x00\x00\x00\x00\x00\x00\x00'
p5032
tp5033
Rp5034
sbasg24
I-1
sg25
g13
(g55
S',\x00\x00\x00\x00\x00\x00\x00'
p5035
tp5036
Rp5037
sba(i__main__
tree
p5038
(dp5039
g4
F0.0
sg5
I-1
sg6
(lp5040
(i__main__
tree
p5041
(dp5042
g4
F0.0
sg5
I-1
sg6
(lp5043
(i__main__
tree
p5044
(dp5045
g4
F0.0
sg5
I-1
sg6
(lp5046
(i__main__
tree
p5047
(dp5048
g4
F0.0
sg5
I-1
sg6
(lp5049
(i__main__
tree
p5050
(dp5051
g4
g13
(g17
S',C!\xab;\xf4\xdc?'
p5052
tp5053
Rp5054
sg5
I0
sg6
(lp5055
sg24
I-1
sg25
I-1
sba(i__main__
tree
p5056
(dp5057
g4
g13
(g17
S'\x1eV\x0b\xb5\x02p\xca?'
p5058
tp5059
Rp5060
sg5
I0
sg6
(lp5061
sg24
I-1
sg25
I-1
sbasg24
I-1
sg25
g13
(g55
S'\x0e\x00\x00\x00\x00\x00\x00\x00'
p5062
tp5063
Rp5064
sba(i__main__
tree
p5065
(dp5066
g4
g13
(g17
S'`gZD\x05\x1a\xea?'
p5067
tp5068
Rp5069
sg5
I0
sg6
(lp5070
sg24
I-1
sg25
I-1
sbasg24
I-1
sg25
g13
(g55
S'\x03\x00\x00\x00\x00\x00\x00\x00'
p5071
tp5072
Rp5073
sba(i__main__
tree
p5074
(dp5075
g4
F0.0
sg5
I-1
sg6
(lp5076
(i__main__
tree
p5077
(dp5078
g4
F0.0
sg5
I-1
sg6
(lp5079
(i__main__
tree
p5080
(dp5081
g4
g13
(g17
S')\x90\xfe\xdd\x85\xb5\xd2?'
p5082
tp5083
Rp5084
sg5
I0
sg6
(lp5085
sg24
I-1
sg25
I-1
sba(i__main__
tree
p5086
(dp5087
g4
g13
(g17
S',C!\xab;\xf4\xdc?'
p5088
tp5089
Rp5090
sg5
I0
sg6
(lp5091
sg24
I-1
sg25
I-1
sbasg24
I-1
sg25
g13
(g55
S'\x03\x00\x00\x00\x00\x00\x00\x00'
p5092
tp5093
Rp5094
sba(i__main__
tree
p5095
(dp5096
g4
g13
(g17
S'\x1eV\x0b\xb5\x02p\xca?'
p5097
tp5098
Rp5099
sg5
I1
sg6
(lp5100
sg24
I-1
sg25
I-1
sbasg24
I-1
sg25
g13
(g55
S'\x16\x00\x00\x00\x00\x00\x00\x00'
p5101
tp5102
Rp5103
sbasg24
I-1
sg25
g13
(g55
S'\x00\x00\x00\x00\x00\x00\x00\x00'
p5104
tp5105
Rp5106
sba(i__main__
tree
p5107
(dp5108
g4
F0.0
sg5
I-1
sg6
(lp5109
(i__main__
tree
p5110
(dp5111
g4
F0.0
sg5
I-1
sg6
(lp5112
(i__main__
tree
p5113
(dp5114
g4
g13
(g17
S'\xda\xa0.\rl\xe9\xc5?'
p5115
tp5116
Rp5117
sg5
I0
sg6
(lp5118
sg24
I-1
sg25
I-1
sba(i__main__
tree
p5119
(dp5120
g4
g13
(g17
S'\x1eV\x0b\xb5\x02p\xca?'
p5121
tp5122
Rp5123
sg5
I1
sg6
(lp5124
sg24
I-1
sg25
I-1
sbasg24
I-1
sg25
g13
(g55
S'\x00\x00\x00\x00\x00\x00\x00\x00'
p5125
tp5126
Rp5127
sba(i__main__
tree
p5128
(dp5129
g4
g13
(g17
S'"Fz\x14d\x1e\xe7?'
p5130
tp5131
Rp5132
sg5
I1
sg6
(lp5133
sg24
I-1
sg25
I-1
sbasg24
I-1
sg25
g13
(g55
S'\x0e\x00\x00\x00\x00\x00\x00\x00'
p5134
tp5135
Rp5136
sbasg24
I-1
sg25
g13
(g55
S',\x00\x00\x00\x00\x00\x00\x00'
p5137
tp5138
Rp5139
sbasg24
I-1
sg25
g13
(g55
S'\x06\x00\x00\x00\x00\x00\x00\x00'
p5140
tp5141
Rp5142
sba(i__main__
tree
p5143
(dp5144
g4
F0.0
sg5
I-1
sg6
(lp5145
(i__main__
tree
p5146
(dp5147
g4
F0.0
sg5
I-1
sg6
(lp5148
(i__main__
tree
p5149
(dp5150
g4
F0.0
sg5
I-1
sg6
(lp5151
(i__main__
tree
p5152
(dp5153
g4
F0.0
sg5
I-1
sg6
(lp5154
(i__main__
tree
p5155
(dp5156
g4
F0.0
sg5
I-1
sg6
(lp5157
(i__main__
tree
p5158
(dp5159
g4
F0.0
sg5
I-1
sg6
(lp5160
(i__main__
tree
p5161
(dp5162
g4
g13
(g17
S',C!\xab;\xf4\xdc?'
p5163
tp5164
Rp5165
sg5
I1
sg6
(lp5166
sg24
I-1
sg25
I-1
sba(i__main__
tree
p5167
(dp5168
g4
g13
(g17
S'\xda\xa0.\rl\xe9\xc5?'
p5169
tp5170
Rp5171
sg5
I0
sg6
(lp5172
sg24
I-1
sg25
I-1
sbasg24
I-1
sg25
g13
(g55
S'\x06\x00\x00\x00\x00\x00\x00\x00'
p5173
tp5174
Rp5175
sba(i__main__
tree
p5176
(dp5177
g4
g13
(g17
S')\x90\xfe\xdd\x85\xb5\xd2?'
p5178
tp5179
Rp5180
sg5
I0
sg6
(lp5181
sg24
I-1
sg25
I-1
sbasg24
I-1
sg25
g13
(g55
S',\x00\x00\x00\x00\x00\x00\x00'
p5182
tp5183
Rp5184
sba(i__main__
tree
p5185
(dp5186
g4
g13
(g17
S')\x90\xfe\xdd\x85\xb5\xd2?'
p5187
tp5188
Rp5189
sg5
I0
sg6
(lp5190
sg24
I-1
sg25
I-1
sbasg24
I-1
sg25
g13
(g55
S'\x00\x00\x00\x00\x00\x00\x00\x00'
p5191
tp5192
Rp5193
sba(i__main__
tree
p5194
(dp5195
g4
F0.0
sg5
I-1
sg6
(lp5196
(i__main__
tree
p5197
(dp5198
g4
g13
(g17
S'd\xb0_4Wm\xe6?'
p5199
tp5200
Rp5201
sg5
I0
sg6
(lp5202
sg24
I-1
sg25
I-1
sba(i__main__
tree
p5203
(dp5204
g4
g13
(g17
S'\x1eV\x0b\xb5\x02p\xca?'
p5205
tp5206
Rp5207
sg5
I1
sg6
(lp5208
sg24
I-1
sg25
I-1
sbasg24
I-1
sg25
g13
(g55
S'\x06\x00\x00\x00\x00\x00\x00\x00'
p5209
tp5210
Rp5211
sbasg24
I-1
sg25
g13
(g55
S'\x16\x00\x00\x00\x00\x00\x00\x00'
p5212
tp5213
Rp5214
sba(i__main__
tree
p5215
(dp5216
g4
g13
(g17
S'BJ\xa0\x85\x0c\xee\xed?'
p5217
tp5218
Rp5219
sg5
I0
sg6
(lp5220
sg24
I-1
sg25
I-1
sbasg24
I-1
sg25
g13
(g55
S'\x03\x00\x00\x00\x00\x00\x00\x00'
p5221
tp5222
Rp5223
sba(i__main__
tree
p5224
(dp5225
g4
F0.0
sg5
I-1
sg6
(lp5226
(i__main__
tree
p5227
(dp5228
g4
F0.0
sg5
I-1
sg6
(lp5229
(i__main__
tree
p5230
(dp5231
g4
F0.0
sg5
I-1
sg6
(lp5232
(i__main__
tree
p5233
(dp5234
g4
g13
(g17
S'?\xd8\xfd\xccH\x10\xdc?'
p5235
tp5236
Rp5237
sg5
I0
sg6
(lp5238
sg24
I-1
sg25
I-1
sba(i__main__
tree
p5239
(dp5240
g4
F0.0
sg5
I-1
sg6
(lp5241
(i__main__
tree
p5242
(dp5243
g4
g13
(g17
S')\x90\xfe\xdd\x85\xb5\xd2?'
p5244
tp5245
Rp5246
sg5
I0
sg6
(lp5247
sg24
I-1
sg25
I-1
sba(i__main__
tree
p5248
(dp5249
g4
g13
(g17
S'\xd9\xa0.\rl\xe9\xd5?'
p5250
tp5251
Rp5252
sg5
I0
sg6
(lp5253
sg24
I-1
sg25
I-1
sbasg24
I-1
sg25
g13
(g55
S'\x06\x00\x00\x00\x00\x00\x00\x00'
p5254
tp5255
Rp5256
sbasg24
I-1
sg25
g13
(g55
S'\x03\x00\x00\x00\x00\x00\x00\x00'
p5257
tp5258
Rp5259
sba(i__main__
tree
p5260
(dp5261
g4
F0.0
sg5
I-1
sg6
(lp5262
(i__main__
tree
p5263
(dp5264
g4
g13
(g17
S'?\xd8\xfd\xccH\x10\xdc?'
p5265
tp5266
Rp5267
sg5
I1
sg6
(lp5268
sg24
I-1
sg25
I-1
sba(i__main__
tree
p5269
(dp5270
g4
g13
(g17
S'\x1eV\x0b\xb5\x02p\xca?'
p5271
tp5272
Rp5273
sg5
I0
sg6
(lp5274
sg24
I-1
sg25
I-1
sbasg24
I-1
sg25
g13
(g55
S'\x06\x00\x00\x00\x00\x00\x00\x00'
p5275
tp5276
Rp5277
sbasg24
I-1
sg25
g13
(g55
S',\x00\x00\x00\x00\x00\x00\x00'
p5278
tp5279
Rp5280
sba(i__main__
tree
p5281
(dp5282
g4
F0.0
sg5
I-1
sg6
(lp5283
(i__main__
tree
p5284
(dp5285
g4
g13
(g17
S'\x96\xb2\x9b\xc5\xecA\xe0?'
p5286
tp5287
Rp5288
sg5
I1
sg6
(lp5289
sg24
I-1
sg25
I-1
sba(i__main__
tree
p5290
(dp5291
g4
g13
(g17
S'\xd9\xa0.\rl\xe9\xd5?'
p5292
tp5293
Rp5294
sg5
I1
sg6
(lp5295
sg24
I-1
sg25
I-1
sbasg24
I-1
sg25
g13
(g55
S',\x00\x00\x00\x00\x00\x00\x00'
p5296
tp5297
Rp5298
sbasg24
I-1
sg25
g13
(g55
S'\x00\x00\x00\x00\x00\x00\x00\x00'
p5299
tp5300
Rp5301
sbasg24
I-1
sg25
g13
(g55
S'\x0e\x00\x00\x00\x00\x00\x00\x00'
p5302
tp5303
Rp5304
sbasg24
I-1
sg25
g13
(g55
S'\x17\x00\x00\x00\x00\x00\x00\x00'
p5305
tp5306
Rp5307
sbsS'1Versus4'
p5308
(i__main__
tree
p5309
(dp5310
g4
F0.0
sg5
I-1
sg6
(lp5311
(i__main__
tree
p5312
(dp5313
g4
F0.0
sg5
I-1
sg6
(lp5314
(i__main__
tree
p5315
(dp5316
g4
g13
(g17
S'\x06f\xc0\xb9Y\n\xee?'
p5317
tp5318
Rp5319
sg5
I0
sg6
(lp5320
sg24
I-1
sg25
I-1
sba(i__main__
tree
p5321
(dp5322
g4
F0.0
sg5
I-1
sg6
(lp5323
(i__main__
tree
p5324
(dp5325
g4
F0.0
sg5
I-1
sg6
(lp5326
(i__main__
tree
p5327
(dp5328
g4
F0.0
sg5
I-1
sg6
(lp5329
(i__main__
tree
p5330
(dp5331
g4
g13
(g17
S'?\xd8\xfd\xccH\x10\xdc?'
p5332
tp5333
Rp5334
sg5
I1
sg6
(lp5335
sg24
I-1
sg25
I-1
sba(i__main__
tree
p5336
(dp5337
g4
F0.0
sg5
I-1
sg6
(lp5338
(i__main__
tree
p5339
(dp5340
g4
F0.0
sg5
I-1
sg6
(lp5341
(i__main__
tree
p5342
(dp5343
g4
g13
(g17
S'\xf5&1\xad\xf8P\xe7?'
p5344
tp5345
Rp5346
sg5
I1
sg6
(lp5347
sg24
I-1
sg25
I-1
sba(i__main__
tree
p5348
(dp5349
g4
g13
(g17
S'\xd9\xa0.\rl\xe9\xd5?'
p5350
tp5351
Rp5352
sg5
I1
sg6
(lp5353
sg24
I-1
sg25
I-1
sbasg24
I-1
sg25
g13
(g55
S'\x17\x00\x00\x00\x00\x00\x00\x00'
p5354
tp5355
Rp5356
sba(i__main__
tree
p5357
(dp5358
g4
g13
(g17
S'\xd9\xa0.\rl\xe9\xd5?'
p5359
tp5360
Rp5361
sg5
I1
sg6
(lp5362
sg24
I-1
sg25
I-1
sbasg24
I-1
sg25
g13
(g55
S'\x16\x00\x00\x00\x00\x00\x00\x00'
p5363
tp5364
Rp5365
sbasg24
I-1
sg25
g13
(g55
S'\x18\x00\x00\x00\x00\x00\x00\x00'
p5366
tp5367
Rp5368
sba(i__main__
tree
p5369
(dp5370
g4
F0.0
sg5
I-1
sg6
(lp5371
(i__main__
tree
p5372
(dp5373
g4
g13
(g17
S'\xd9\xa0.\rl\xe9\xd5?'
p5374
tp5375
Rp5376
sg5
I1
sg6
(lp5377
sg24
I-1
sg25
I-1
sba(i__main__
tree
p5378
(dp5379
g4
g13
(g17
S'\x1eV\x0b\xb5\x02p\xca?'
p5380
tp5381
Rp5382
sg5
I0
sg6
(lp5383
sg24
I-1
sg25
I-1
sbasg24
I-1
sg25
g13
(g55
S'\x16\x00\x00\x00\x00\x00\x00\x00'
p5384
tp5385
Rp5386
sbasg24
I-1
sg25
g13
(g55
S'\x10\x00\x00\x00\x00\x00\x00\x00'
p5387
tp5388
Rp5389
sba(i__main__
tree
p5390
(dp5391
g4
F0.0
sg5
I-1
sg6
(lp5392
(i__main__
tree
p5393
(dp5394
g4
F0.0
sg5
I-1
sg6
(lp5395
(i__main__
tree
p5396
(dp5397
g4
g13
(g17
S'\xd9\xa0.\rl\xe9\xd5?'
p5398
tp5399
Rp5400
sg5
I1
sg6
(lp5401
sg24
I-1
sg25
I-1
sba(i__main__
tree
p5402
(dp5403
g4
g13
(g17
S'\xd9\xa0.\rl\xe9\xd5?'
p5404
tp5405
Rp5406
sg5
I0
sg6
(lp5407
sg24
I-1
sg25
I-1
sbasg24
I-1
sg25
g13
(g55
S'\x10\x00\x00\x00\x00\x00\x00\x00'
p5408
tp5409
Rp5410
sba(i__main__
tree
p5411
(dp5412
g4
g13
(g17
S'\x92\x02p\x7f\x1f\x1c\xe9?'
p5413
tp5414
Rp5415
sg5
I0
sg6
(lp5416
sg24
I-1
sg25
I-1
sbasg24
I-1
sg25
g13
(g55
S'\x17\x00\x00\x00\x00\x00\x00\x00'
p5417
tp5418
Rp5419
sbasg24
I-1
sg25
g13
(g55
S'\x03\x00\x00\x00\x00\x00\x00\x00'
p5420
tp5421
Rp5422
sbasg24
I-1
sg25
g13
(g55
S'\x0b\x00\x00\x00\x00\x00\x00\x00'
p5423
tp5424
Rp5425
sba(i__main__
tree
p5426
(dp5427
g4
F0.0
sg5
I-1
sg6
(lp5428
(i__main__
tree
p5429
(dp5430
g4
F0.0
sg5
I-1
sg6
(lp5431
(i__main__
tree
p5432
(dp5433
g4
F0.0
sg5
I-1
sg6
(lp5434
(i__main__
tree
p5435
(dp5436
g4
F0.0
sg5
I-1
sg6
(lp5437
(i__main__
tree
p5438
(dp5439
g4
g13
(g17
S'\x1eV\x0b\xb5\x02p\xca?'
p5440
tp5441
Rp5442
sg5
I1
sg6
(lp5443
sg24
I-1
sg25
I-1
sba(i__main__
tree
p5444
(dp5445
g4
g13
(g17
S'\xf4\xa4\xe2\xc9\x1b|\xd8?'
p5446
tp5447
Rp5448
sg5
I1
sg6
(lp5449
sg24
I-1
sg25
I-1
sbasg24
I-1
sg25
g13
(g55
S'\x03\x00\x00\x00\x00\x00\x00\x00'
p5450
tp5451
Rp5452
sba(i__main__
tree
p5453
(dp5454
g4
g13
(g17
S'\xde\xf4\xa67\xbdy\xe9?'
p5455
tp5456
Rp5457
sg5
I1
sg6
(lp5458
sg24
I-1
sg25
I-1
sbasg24
I-1
sg25
g13
(g55
S'\x18\x00\x00\x00\x00\x00\x00\x00'
p5459
tp5460
Rp5461
sba(i__main__
tree
p5462
(dp5463
g4
F0.0
sg5
I-1
sg6
(lp5464
(i__main__
tree
p5465
(dp5466
g4
F0.0
sg5
I-1
sg6
(lp5467
(i__main__
tree
p5468
(dp5469
g4
g13
(g17
S'\x1eV\x0b\xb5\x02p\xca?'
p5470
tp5471
Rp5472
sg5
I1
sg6
(lp5473
sg24
I-1
sg25
I-1
sba(i__main__
tree
p5474
(dp5475
g4
g13
(g17
S'\xd9\xa0.\rl\xe9\xd5?'
p5476
tp5477
Rp5478
sg5
I0
sg6
(lp5479
sg24
I-1
sg25
I-1
sbasg24
I-1
sg25
g13
(g55
S'\x17\x00\x00\x00\x00\x00\x00\x00'
p5480
tp5481
Rp5482
sba(i__main__
tree
p5483
(dp5484
g4
g13
(g17
S'\x1e\x027\x96A\xa9\xe4?'
p5485
tp5486
Rp5487
sg5
I0
sg6
(lp5488
sg24
I-1
sg25
I-1
sbasg24
I-1
sg25
g13
(g55
S'\x03\x00\x00\x00\x00\x00\x00\x00'
p5489
tp5490
Rp5491
sbasg24
I-1
sg25
g13
(g55
S'\x10\x00\x00\x00\x00\x00\x00\x00'
p5492
tp5493
Rp5494
sba(i__main__
tree
p5495
(dp5496
g4
g13
(g17
S"\xfa\xbb|\x07'\x1d\xef?"
p5497
tp5498
Rp5499
sg5
I1
sg6
(lp5500
sg24
I-1
sg25
I-1
sbasg24
I-1
sg25
g13
(g55
S'\x0b\x00\x00\x00\x00\x00\x00\x00'
p5501
tp5502
Rp5503
sbasg24
I-1
sg25
g13
(g55
S'\x05\x00\x00\x00\x00\x00\x00\x00'
p5504
tp5505
Rp5506
sbsS'2Versus3'
p5507
(i__main__
tree
p5508
(dp5509
g4
F0.0
sg5
I-1
sg6
(lp5510
(i__main__
tree
p5511
(dp5512
g4
F0.0
sg5
I-1
sg6
(lp5513
(i__main__
tree
p5514
(dp5515
g4
F0.0
sg5
I-1
sg6
(lp5516
(i__main__
tree
p5517
(dp5518
g4
F0.0
sg5
I-1
sg6
(lp5519
(i__main__
tree
p5520
(dp5521
g4
F0.0
sg5
I-1
sg6
(lp5522
(i__main__
tree
p5523
(dp5524
g4
g13
(g17
S'\n#)\ro=\xe8?'
p5525
tp5526
Rp5527
sg5
I0
sg6
(lp5528
sg24
I-1
sg25
I-1
sba(i__main__
tree
p5529
(dp5530
g4
F0.0
sg5
I-1
sg6
(lp5531
(i__main__
tree
p5532
(dp5533
g4
F0.0
sg5
I-1
sg6
(lp5534
(i__main__
tree
p5535
(dp5536
g4
g13
(g17
S')\x90\xfe\xdd\x85\xb5\xd2?'
p5537
tp5538
Rp5539
sg5
I0
sg6
(lp5540
sg24
I-1
sg25
I-1
sba(i__main__
tree
p5541
(dp5542
g4
g13
(g17
S'\x1e\x027\x96A\xa9\xe4?'
p5543
tp5544
Rp5545
sg5
I0
sg6
(lp5546
sg24
I-1
sg25
I-1
sbasg24
I-1
sg25
g13
(g55
S'\x18\x00\x00\x00\x00\x00\x00\x00'
p5547
tp5548
Rp5549
sba(i__main__
tree
p5550
(dp5551
g4
F0.0
sg5
I-1
sg6
(lp5552
(i__main__
tree
p5553
(dp5554
g4
g13
(g17
S'\xd9\xa0.\rl\xe9\xd5?'
p5555
tp5556
Rp5557
sg5
I0
sg6
(lp5558
sg24
I-1
sg25
I-1
sba(i__main__
tree
p5559
(dp5560
g4
g13
(g17
S'\x1eV\x0b\xb5\x02p\xca?'
p5561
tp5562
Rp5563
sg5
I1
sg6
(lp5564
sg24
I-1
sg25
I-1
sbasg24
I-1
sg25
g13
(g55
S'\x18\x00\x00\x00\x00\x00\x00\x00'
p5565
tp5566
Rp5567
sbasg24
I-1
sg25
g13
(g55
S'\x10\x00\x00\x00\x00\x00\x00\x00'
p5568
tp5569
Rp5570
sbasg24
I-1
sg25
g13
(g55
S'\x13\x00\x00\x00\x00\x00\x00\x00'
p5571
tp5572
Rp5573
sba(i__main__
tree
p5574
(dp5575
g4
g13
(g17
S'\xd9\xa0.\rl\xe9\xd5?'
p5576
tp5577
Rp5578
sg5
I1
sg6
(lp5579
sg24
I-1
sg25
I-1
sbasg24
I-1
sg25
g13
(g55
S'\x01\x00\x00\x00\x00\x00\x00\x00'
p5580
tp5581
Rp5582
sba(i__main__
tree
p5583
(dp5584
g4
F0.0
sg5
I-1
sg6
(lp5585
(i__main__
tree
p5586
(dp5587
g4
F0.0
sg5
I-1
sg6
(lp5588
(i__main__
tree
p5589
(dp5590
g4
F0.0
sg5
I-1
sg6
(lp5591
(i__main__
tree
p5592
(dp5593
g4
g13
(g17
S'\xd9\xa0.\rl\xe9\xd5?'
p5594
tp5595
Rp5596
sg5
I1
sg6
(lp5597
sg24
I-1
sg25
I-1
sba(i__main__
tree
p5598
(dp5599
g4
F0.0
sg5
I-1
sg6
(lp5600
(i__main__
tree
p5601
(dp5602
g4
g13
(g17
S'\x1eV\x0b\xb5\x02p\xca?'
p5603
tp5604
Rp5605
sg5
I1
sg6
(lp5606
sg24
I-1
sg25
I-1
sba(i__main__
tree
p5607
(dp5608
g4
g13
(g17
S'\x1f?\xa1E\x8d\xce\xe4?'
p5609
tp5610
Rp5611
sg5
I1
sg6
(lp5612
sg24
I-1
sg25
I-1
sbasg24
I-1
sg25
g13
(g55
S'\x18\x00\x00\x00\x00\x00\x00\x00'
p5613
tp5614
Rp5615
sbasg24
I-1
sg25
g13
(g55
S'\x13\x00\x00\x00\x00\x00\x00\x00'
p5616
tp5617
Rp5618
sba(i__main__
tree
p5619
(dp5620
g4
g13
(g17
S'N\xc3A1\xbdR\xe0?'
p5621
tp5622
Rp5623
sg5
I1
sg6
(lp5624
sg24
I-1
sg25
I-1
sbasg24
I-1
sg25
g13
(g55
S'\x01\x00\x00\x00\x00\x00\x00\x00'
p5625
tp5626
Rp5627
sba(i__main__
tree
p5628
(dp5629
g4
F0.0
sg5
I-1
sg6
(lp5630
(i__main__
tree
p5631
(dp5632
g4
g13
(g17
S'N\xc3A1\xbdR\xe0?'
p5633
tp5634
Rp5635
sg5
I0
sg6
(lp5636
sg24
I-1
sg25
I-1
sba(i__main__
tree
p5637
(dp5638
g4
g13
(g17
S'\xd9\xa0.\rl\xe9\xd5?'
p5639
tp5640
Rp5641
sg5
I1
sg6
(lp5642
sg24
I-1
sg25
I-1
sbasg24
I-1
sg25
g13
(g55
S'\x01\x00\x00\x00\x00\x00\x00\x00'
p5643
tp5644
Rp5645
sbasg24
I-1
sg25
g13
(g55
S'\x10\x00\x00\x00\x00\x00\x00\x00'
p5646
tp5647
Rp5648
sbasg24
I-1
sg25
g13
(g55
S'\x03\x00\x00\x00\x00\x00\x00\x00'
p5649
tp5650
Rp5651
sba(i__main__
tree
p5652
(dp5653
g4
g13
(g17
S'\xbe\x91j3\x83,\xee?'
p5654
tp5655
Rp5656
sg5
I1
sg6
(lp5657
sg24
I-1
sg25
I-1
sbasg24
I-1
sg25
g13
(g55
S'\x00\x00\x00\x00\x00\x00\x00\x00'
p5658
tp5659
Rp5660
sba(i__main__
tree
p5661
(dp5662
g4
F0.0
sg5
I-1
sg6
(lp5663
(i__main__
tree
p5664
(dp5665
g4
g13
(g17
S'\xdb"08\xd7N\xee?'
p5666
tp5667
Rp5668
sg5
I0
sg6
(lp5669
sg24
I-1
sg25
I-1
sba(i__main__
tree
p5670
(dp5671
g4
F0.0
sg5
I-1
sg6
(lp5672
(i__main__
tree
p5673
(dp5674
g4
F0.0
sg5
I-1
sg6
(lp5675
(i__main__
tree
p5676
(dp5677
g4
g13
(g17
S'\xf6u\x8e;\xeb\xcd\xe9?'
p5678
tp5679
Rp5680
sg5
I0
sg6
(lp5681
sg24
I-1
sg25
I-1
sba(i__main__
tree
p5682
(dp5683
g4
F0.0
sg5
I-1
sg6
(lp5684
(i__main__
tree
p5685
(dp5686
g4
g13
(g17
S'\x1eV\x0b\xb5\x02p\xca?'
p5687
tp5688
Rp5689
sg5
I0
sg6
(lp5690
sg24
I-1
sg25
I-1
sba(i__main__
tree
p5691
(dp5692
g4
g13
(g17
S'?\xd8\xfd\xccH\x10\xdc?'
p5693
tp5694
Rp5695
sg5
I1
sg6
(lp5696
sg24
I-1
sg25
I-1
sbasg24
I-1
sg25
g13
(g55
S'\x13\x00\x00\x00\x00\x00\x00\x00'
p5697
tp5698
Rp5699
sbasg24
I-1
sg25
g13
(g55
S'\x00\x00\x00\x00\x00\x00\x00\x00'
p5700
tp5701
Rp5702
sba(i__main__
tree
p5703
(dp5704
g4
F0.0
sg5
I-1
sg6
(lp5705
(i__main__
tree
p5706
(dp5707
g4
F0.0
sg5
I-1
sg6
(lp5708
(i__main__
tree
p5709
(dp5710
g4
F0.0
sg5
I-1
sg6
(lp5711
(i__main__
tree
p5712
(dp5713
g4
F0.0
sg5
I-1
sg6
(lp5714
(i__main__
tree
p5715
(dp5716
g4
g13
(g17
S'\x1eV\x0b\xb5\x02p\xca?'
p5717
tp5718
Rp5719
sg5
I1
sg6
(lp5720
sg24
I-1
sg25
I-1
sba(i__main__
tree
p5721
(dp5722
g4
g13
(g17
S'\x1eV\x0b\xb5\x02p\xca?'
p5723
tp5724
Rp5725
sg5
I0
sg6
(lp5726
sg24
I-1
sg25
I-1
sbasg24
I-1
sg25
g13
(g55
S'\x10\x00\x00\x00\x00\x00\x00\x00'
p5727
tp5728
Rp5729
sba(i__main__
tree
p5730
(dp5731
g4
g13
(g17
S'\x1eV\x0b\xb5\x02p\xca?'
p5732
tp5733
Rp5734
sg5
I0
sg6
(lp5735
sg24
I-1
sg25
I-1
sbasg24
I-1
sg25
g13
(g55
S'\x00\x00\x00\x00\x00\x00\x00\x00'
p5736
tp5737
Rp5738
sba(i__main__
tree
p5739
(dp5740
g4
g13
(g17
S'\x1eV\x0b\xb5\x02p\xca?'
p5741
tp5742
Rp5743
sg5
I1
sg6
(lp5744
sg24
I-1
sg25
I-1
sbasg24
I-1
sg25
g13
(g55
S'\x01\x00\x00\x00\x00\x00\x00\x00'
p5745
tp5746
Rp5747
sba(i__main__
tree
p5748
(dp5749
g4
g13
(g17
S'd\xb0_4Wm\xe6?'
p5750
tp5751
Rp5752
sg5
I1
sg6
(lp5753
sg24
I-1
sg25
I-1
sbasg24
I-1
sg25
g13
(g55
S'\x13\x00\x00\x00\x00\x00\x00\x00'
p5754
tp5755
Rp5756
sbasg24
I-1
sg25
g13
(g55
S'\x03\x00\x00\x00\x00\x00\x00\x00'
p5757
tp5758
Rp5759
sbasg24
I-1
sg25
g13
(g55
S'\x18\x00\x00\x00\x00\x00\x00\x00'
p5760
tp5761
Rp5762
sbasg24
I-1
sg25
g13
(g55
S'\x08\x00\x00\x00\x00\x00\x00\x00'
p5763
tp5764
Rp5765
sbsS'1Versus6'
p5766
(i__main__
tree
p5767
(dp5768
g4
F0.0
sg5
I-1
sg6
(lp5769
(i__main__
tree
p5770
(dp5771
g4
F0.0
sg5
I-1
sg6
(lp5772
(i__main__
tree
p5773
(dp5774
g4
F0.0
sg5
I-1
sg6
(lp5775
(i__main__
tree
p5776
(dp5777
g4
F0.0
sg5
I-1
sg6
(lp5778
(i__main__
tree
p5779
(dp5780
g4
F0.0
sg5
I-1
sg6
(lp5781
(i__main__
tree
p5782
(dp5783
g4
F0.0
sg5
I-1
sg6
(lp5784
(i__main__
tree
p5785
(dp5786
g4
g13
(g17
S'?\xd8\xfd\xccH\x10\xdc?'
p5787
tp5788
Rp5789
sg5
I0
sg6
(lp5790
sg24
I-1
sg25
I-1
sba(i__main__
tree
p5791
(dp5792
g4
F0.0
sg5
I-1
sg6
(lp5793
(i__main__
tree
p5794
(dp5795
g4
g13
(g17
S'\x1eV\x0b\xb5\x02p\xca?'
p5796
tp5797
Rp5798
sg5
I0
sg6
(lp5799
sg24
I-1
sg25
I-1
sba(i__main__
tree
p5800
(dp5801
g4
g13
(g17
S',C!\xab;\xf4\xdc?'
p5802
tp5803
Rp5804
sg5
I0
sg6
(lp5805
sg24
I-1
sg25
I-1
sbasg24
I-1
sg25
g13
(g55
S'\x18\x00\x00\x00\x00\x00\x00\x00'
p5806
tp5807
Rp5808
sbasg24
I-1
sg25
g13
(g55
S'\x03\x00\x00\x00\x00\x00\x00\x00'
p5809
tp5810
Rp5811
sba(i__main__
tree
p5812
(dp5813
g4
g13
(g17
S'`gZD\x05\x1a\xea?'
p5814
tp5815
Rp5816
sg5
I0
sg6
(lp5817
sg24
I-1
sg25
I-1
sbasg24
I-1
sg25
g13
(g55
S'\x17\x00\x00\x00\x00\x00\x00\x00'
p5818
tp5819
Rp5820
sba(i__main__
tree
p5821
(dp5822
g4
F0.0
sg5
I-1
sg6
(lp5823
(i__main__
tree
p5824
(dp5825
g4
g13
(g17
S'?\xd8\xfd\xccH\x10\xdc?'
p5826
tp5827
Rp5828
sg5
I1
sg6
(lp5829
sg24
I-1
sg25
I-1
sba(i__main__
tree
p5830
(dp5831
g4
g13
(g17
S'\xd9\xa0.\rl\xe9\xd5?'
p5832
tp5833
Rp5834
sg5
I0
sg6
(lp5835
sg24
I-1
sg25
I-1
sbasg24
I-1
sg25
g13
(g55
S'\x03\x00\x00\x00\x00\x00\x00\x00'
p5836
tp5837
Rp5838
sbasg24
I-1
sg25
g13
(g55
S'\x04\x00\x00\x00\x00\x00\x00\x00'
p5839
tp5840
Rp5841
sba(i__main__
tree
p5842
(dp5843
g4
g13
(g17
S'\x92\xc9\xcb\x1c\x1d\x84\xee?'
p5844
tp5845
Rp5846
sg5
I0
sg6
(lp5847
sg24
I-1
sg25
I-1
sbasg24
I-1
sg25
g13
(g55
S'\x10\x00\x00\x00\x00\x00\x00\x00'
p5848
tp5849
Rp5850
sba(i__main__
tree
p5851
(dp5852
g4
F0.0
sg5
I-1
sg6
(lp5853
(i__main__
tree
p5854
(dp5855
g4
F0.0
sg5
I-1
sg6
(lp5856
(i__main__
tree
p5857
(dp5858
g4
F0.0
sg5
I-1
sg6
(lp5859
(i__main__
tree
p5860
(dp5861
g4
F0.0
sg5
I-1
sg6
(lp5862
(i__main__
tree
p5863
(dp5864
g4
g13
(g17
S'\xda\xa0.\rl\xe9\xc5?'
p5865
tp5866
Rp5867
sg5
I0
sg6
(lp5868
sg24
I-1
sg25
I-1
sba(i__main__
tree
p5869
(dp5870
g4
g13
(g17
S'N\xc3A1\xbdR\xe0?'
p5871
tp5872
Rp5873
sg5
I1
sg6
(lp5874
sg24
I-1
sg25
I-1
sbasg24
I-1
sg25
g13
(g55
S'\x18\x00\x00\x00\x00\x00\x00\x00'
p5875
tp5876
Rp5877
sba(i__main__
tree
p5878
(dp5879
g4
F0.0
sg5
I-1
sg6
(lp5880
(i__main__
tree
p5881
(dp5882
g4
g13
(g17
S'D\xb2N\xbf^4\xc3?'
p5883
tp5884
Rp5885
sg5
I0
sg6
(lp5886
sg24
I-1
sg25
I-1
sba(i__main__
tree
p5887
(dp5888
g4
g13
(g17
S'\x1eV\x0b\xb5\x02p\xca?'
p5889
tp5890
Rp5891
sg5
I0
sg6
(lp5892
sg24
I-1
sg25
I-1
sbasg24
I-1
sg25
g13
(g55
S'\x17\x00\x00\x00\x00\x00\x00\x00'
p5893
tp5894
Rp5895
sbasg24
I-1
sg25
g13
(g55
S'\x03\x00\x00\x00\x00\x00\x00\x00'
p5896
tp5897
Rp5898
sba(i__main__
tree
p5899
(dp5900
g4
g13
(g17
S'Br}\xc3c\xb3\xe8?'
p5901
tp5902
Rp5903
sg5
I1
sg6
(lp5904
sg24
I-1
sg25
I-1
sbasg24
I-1
sg25
g13
(g55
S'\x04\x00\x00\x00\x00\x00\x00\x00'
p5905
tp5906
Rp5907
sba(i__main__
tree
p5908
(dp5909
g4
F0.0
sg5
I-1
sg6
(lp5910
(i__main__
tree
p5911
(dp5912
g4
g13
(g17
S'\\t|"c\x9e\xe5?'
p5913
tp5914
Rp5915
sg5
I0
sg6
(lp5916
sg24
I-1
sg25
I-1
sba(i__main__
tree
p5917
(dp5918
g4
F0.0
sg5
I-1
sg6
(lp5919
(i__main__
tree
p5920
(dp5921
g4
g13
(g17
S'\x1eV\x0b\xb5\x02p\xca?'
p5922
tp5923
Rp5924
sg5
I1
sg6
(lp5925
sg24
I-1
sg25
I-1
sba(i__main__
tree
p5926
(dp5927
g4
g13
(g17
S'?\xd8\xfd\xccH\x10\xdc?'
p5928
tp5929
Rp5930
sg5
I0
sg6
(lp5931
sg24
I-1
sg25
I-1
sbasg24
I-1
sg25
g13
(g55
S'\x03\x00\x00\x00\x00\x00\x00\x00'
p5932
tp5933
Rp5934
sbasg24
I-1
sg25
g13
(g55
S'\x04\x00\x00\x00\x00\x00\x00\x00'
p5935
tp5936
Rp5937
sbasg24
I-1
sg25
g13
(g55
S'\x10\x00\x00\x00\x00\x00\x00\x00'
p5938
tp5939
Rp5940
sbasg24
I-1
sg25
g13
(g55
S'\x00\x00\x00\x00\x00\x00\x00\x00'
p5941
tp5942
Rp5943
sba(i__main__
tree
p5944
(dp5945
g4
F0.0
sg5
I-1
sg6
(lp5946
(i__main__
tree
p5947
(dp5948
g4
g13
(g17
S'\xf8\x84\xe611\x19\xef?'
p5949
tp5950
Rp5951
sg5
I1
sg6
(lp5952
sg24
I-1
sg25
I-1
sba(i__main__
tree
p5953
(dp5954
g4
F0.0
sg5
I-1
sg6
(lp5955
(i__main__
tree
p5956
(dp5957
g4
F0.0
sg5
I-1
sg6
(lp5958
(i__main__
tree
p5959
(dp5960
g4
F0.0
sg5
I-1
sg6
(lp5961
(i__main__
tree
p5962
(dp5963
g4
g13
(g17
S'\xd9\xa0.\rl\xe9\xd5?'
p5964
tp5965
Rp5966
sg5
I0
sg6
(lp5967
sg24
I-1
sg25
I-1
sba(i__main__
tree
p5968
(dp5969
g4
g13
(g17
S'\x1eV\x0b\xb5\x02p\xca?'
p5970
tp5971
Rp5972
sg5
I1
sg6
(lp5973
sg24
I-1
sg25
I-1
sbasg24
I-1
sg25
g13
(g55
S'\x00\x00\x00\x00\x00\x00\x00\x00'
p5974
tp5975
Rp5976
sba(i__main__
tree
p5977
(dp5978
g4
g13
(g17
S'\x92\x02p\x7f\x1f\x1c\xe9?'
p5979
tp5980
Rp5981
sg5
I1
sg6
(lp5982
sg24
I-1
sg25
I-1
sbasg24
I-1
sg25
g13
(g55
S'\x18\x00\x00\x00\x00\x00\x00\x00'
p5983
tp5984
Rp5985
sba(i__main__
tree
p5986
(dp5987
g4
g13
(g17
S'\\t|"c\x9e\xe5?'
p5988
tp5989
Rp5990
sg5
I0
sg6
(lp5991
sg24
I-1
sg25
I-1
sbasg24
I-1
sg25
g13
(g55
S'\x17\x00\x00\x00\x00\x00\x00\x00'
p5992
tp5993
Rp5994
sbasg24
I-1
sg25
g13
(g55
S'\x03\x00\x00\x00\x00\x00\x00\x00'
p5995
tp5996
Rp5997
sbasg24
I-1
sg25
g13
(g55
S'\x01\x00\x00\x00\x00\x00\x00\x00'
p5998
tp5999
Rp6000
sbsS'4Versus6'
p6001
(i__main__
tree
p6002
(dp6003
g4
F0.0
sg5
I-1
sg6
(lp6004
(i__main__
tree
p6005
(dp6006
g4
F0.0
sg5
I-1
sg6
(lp6007
(i__main__
tree
p6008
(dp6009
g4
F0.0
sg5
I-1
sg6
(lp6010
(i__main__
tree
p6011
(dp6012
g4
F0.0
sg5
I-1
sg6
(lp6013
(i__main__
tree
p6014
(dp6015
g4
F0.0
sg5
I-1
sg6
(lp6016
(i__main__
tree
p6017
(dp6018
g4
g13
(g17
S'\xf6u\x8e;\xeb\xcd\xe9?'
p6019
tp6020
Rp6021
sg5
I0
sg6
(lp6022
sg24
I-1
sg25
I-1
sba(i__main__
tree
p6023
(dp6024
g4
g13
(g17
S'\x1eV\x0b\xb5\x02p\xca?'
p6025
tp6026
Rp6027
sg5
I1
sg6
(lp6028
sg24
I-1
sg25
I-1
sbasg24
I-1
sg25
g13
(g55
S'\x1a\x00\x00\x00\x00\x00\x00\x00'
p6029
tp6030
Rp6031
sba(i__main__
tree
p6032
(dp6033
g4
F0.0
sg5
I-1
sg6
(lp6034
(i__main__
tree
p6035
(dp6036
g4
F0.0
sg5
I-1
sg6
(lp6037
(i__main__
tree
p6038
(dp6039
g4
g13
(g17
S')\x90\xfe\xdd\x85\xb5\xd2?'
p6040
tp6041
Rp6042
sg5
I1
sg6
(lp6043
sg24
I-1
sg25
I-1
sba(i__main__
tree
p6044
(dp6045
g4
g13
(g17
S'\xda\xa0.\rl\xe9\xc5?'
p6046
tp6047
Rp6048
sg5
I0
sg6
(lp6049
sg24
I-1
sg25
I-1
sbasg24
I-1
sg25
g13
(g55
S'\x05\x00\x00\x00\x00\x00\x00\x00'
p6050
tp6051
Rp6052
sba(i__main__
tree
p6053
(dp6054
g4
g13
(g17
S'\x1eV\x0b\xb5\x02p\xca?'
p6055
tp6056
Rp6057
sg5
I1
sg6
(lp6058
sg24
I-1
sg25
I-1
sbasg24
I-1
sg25
g13
(g55
S'\t\x00\x00\x00\x00\x00\x00\x00'
p6059
tp6060
Rp6061
sbasg24
I-1
sg25
g13
(g55
S'\x01\x00\x00\x00\x00\x00\x00\x00'
p6062
tp6063
Rp6064
sba(i__main__
tree
p6065
(dp6066
g4
g13
(g17
S'\xf2M`\xc1\xcaG\xef?'
p6067
tp6068
Rp6069
sg5
I0
sg6
(lp6070
sg24
I-1
sg25
I-1
sbasg24
I-1
sg25
g13
(g55
S'\x0b\x00\x00\x00\x00\x00\x00\x00'
p6071
tp6072
Rp6073
sba(i__main__
tree
p6074
(dp6075
g4
F0.0
sg5
I-1
sg6
(lp6076
(i__main__
tree
p6077
(dp6078
g4
F0.0
sg5
I-1
sg6
(lp6079
(i__main__
tree
p6080
(dp6081
g4
F0.0
sg5
I-1
sg6
(lp6082
(i__main__
tree
p6083
(dp6084
g4
g13
(g17
S'\xd9\xa0.\rl\xe9\xd5?'
p6085
tp6086
Rp6087
sg5
I1
sg6
(lp6088
sg24
I-1
sg25
I-1
sba(i__main__
tree
p6089
(dp6090
g4
F0.0
sg5
I-1
sg6
(lp6091
(i__main__
tree
p6092
(dp6093
g4
F0.0
sg5
I-1
sg6
(lp6094
(i__main__
tree
p6095
(dp6096
g4
g13
(g17
S'\x1eV\x0b\xb5\x02p\xca?'
p6097
tp6098
Rp6099
sg5
I0
sg6
(lp6100
sg24
I-1
sg25
I-1
sba(i__main__
tree
p6101
(dp6102
g4
g13
(g17
S'\x1eV\x0b\xb5\x02p\xca?'
p6103
tp6104
Rp6105
sg5
I1
sg6
(lp6106
sg24
I-1
sg25
I-1
sbasg24
I-1
sg25
g13
(g55
S'\x1a\x00\x00\x00\x00\x00\x00\x00'
p6107
tp6108
Rp6109
sba(i__main__
tree
p6110
(dp6111
g4
g13
(g17
S'\x1eV\x0b\xb5\x02p\xca?'
p6112
tp6113
Rp6114
sg5
I0
sg6
(lp6115
sg24
I-1
sg25
I-1
sbasg24
I-1
sg25
g13
(g55
S'\t\x00\x00\x00\x00\x00\x00\x00'
p6116
tp6117
Rp6118
sbasg24
I-1
sg25
g13
(g55
S'\x0b\x00\x00\x00\x00\x00\x00\x00'
p6119
tp6120
Rp6121
sba(i__main__
tree
p6122
(dp6123
g4
g13
(g17
S'\n#)\ro=\xe8?'
p6124
tp6125
Rp6126
sg5
I0
sg6
(lp6127
sg24
I-1
sg25
I-1
sbasg24
I-1
sg25
g13
(g55
S'\x05\x00\x00\x00\x00\x00\x00\x00'
p6128
tp6129
Rp6130
sba(i__main__
tree
p6131
(dp6132
g4
F0.0
sg5
I-1
sg6
(lp6133
(i__main__
tree
p6134
(dp6135
g4
g13
(g17
S'\xf6u\x8e;\xeb\xcd\xe9?'
p6136
tp6137
Rp6138
sg5
I1
sg6
(lp6139
sg24
I-1
sg25
I-1
sba(i__main__
tree
p6140
(dp6141
g4
F0.0
sg5
I-1
sg6
(lp6142
(i__main__
tree
p6143
(dp6144
g4
g13
(g17
S'\xd9\xa0.\rl\xe9\xd5?'
p6145
tp6146
Rp6147
sg5
I1
sg6
(lp6148
sg24
I-1
sg25
I-1
sba(i__main__
tree
p6149
(dp6150
g4
g13
(g17
S'\x1eV\x0b\xb5\x02p\xca?'
p6151
tp6152
Rp6153
sg5
I0
sg6
(lp6154
sg24
I-1
sg25
I-1
sbasg24
I-1
sg25
g13
(g55
S'\x0b\x00\x00\x00\x00\x00\x00\x00'
p6155
tp6156
Rp6157
sbasg24
I-1
sg25
g13
(g55
S'\x05\x00\x00\x00\x00\x00\x00\x00'
p6158
tp6159
Rp6160
sbasg24
I-1
sg25
g13
(g55
S'\x01\x00\x00\x00\x00\x00\x00\x00'
p6161
tp6162
Rp6163
sbasg24
I-1
sg25
g13
(g55
S'\x04\x00\x00\x00\x00\x00\x00\x00'
p6164
tp6165
Rp6166
sba(i__main__
tree
p6167
(dp6168
g4
F0.0
sg5
I-1
sg6
(lp6169
(i__main__
tree
p6170
(dp6171
g4
F0.0
sg5
I-1
sg6
(lp6172
(i__main__
tree
p6173
(dp6174
g4
F0.0
sg5
I-1
sg6
(lp6175
(i__main__
tree
p6176
(dp6177
g4
g13
(g17
S'`gZD\x05\x1a\xea?'
p6178
tp6179
Rp6180
sg5
I1
sg6
(lp6181
sg24
I-1
sg25
I-1
sba(i__main__
tree
p6182
(dp6183
g4
F0.0
sg5
I-1
sg6
(lp6184
(i__main__
tree
p6185
(dp6186
g4
g13
(g17
S'\x1eV\x0b\xb5\x02p\xca?'
p6187
tp6188
Rp6189
sg5
I0
sg6
(lp6190
sg24
I-1
sg25
I-1
sba(i__main__
tree
p6191
(dp6192
g4
g13
(g17
S'N\xc3A1\xbdR\xe0?'
p6193
tp6194
Rp6195
sg5
I1
sg6
(lp6196
sg24
I-1
sg25
I-1
sbasg24
I-1
sg25
g13
(g55
S'\x04\x00\x00\x00\x00\x00\x00\x00'
p6197
tp6198
Rp6199
sbasg24
I-1
sg25
g13
(g55
S'\x0b\x00\x00\x00\x00\x00\x00\x00'
p6200
tp6201
Rp6202
sba(i__main__
tree
p6203
(dp6204
g4
g13
(g17
S'\xde\xf4\xa67\xbdy\xe9?'
p6205
tp6206
Rp6207
sg5
I0
sg6
(lp6208
sg24
I-1
sg25
I-1
sbasg24
I-1
sg25
g13
(g55
S'\x05\x00\x00\x00\x00\x00\x00\x00'
p6209
tp6210
Rp6211
sba(i__main__
tree
p6212
(dp6213
g4
g13
(g17
S'\xc4\xcc\x0c\x00\xec?\xef?'
p6214
tp6215
Rp6216
sg5
I1
sg6
(lp6217
sg24
I-1
sg25
I-1
sbasg24
I-1
sg25
g13
(g55
S'\x01\x00\x00\x00\x00\x00\x00\x00'
p6218
tp6219
Rp6220
sbasg24
I-1
sg25
g13
(g55
S'\x00\x00\x00\x00\x00\x00\x00\x00'
p6221
tp6222
Rp6223
sbsS'2Versus4'
p6224
(i__main__
tree
p6225
(dp6226
g4
F0.0
sg5
I-1
sg6
(lp6227
(i__main__
tree
p6228
(dp6229
g4
F0.0
sg5
I-1
sg6
(lp6230
(i__main__
tree
p6231
(dp6232
g4
g13
(g17
S'\xa4\xcd\x87Y\xc5\xb4\xee?'
p6233
tp6234
Rp6235
sg5
I0
sg6
(lp6236
sg24
I-1
sg25
I-1
sba(i__main__
tree
p6237
(dp6238
g4
F0.0
sg5
I-1
sg6
(lp6239
(i__main__
tree
p6240
(dp6241
g4
F0.0
sg5
I-1
sg6
(lp6242
(i__main__
tree
p6243
(dp6244
g4
F0.0
sg5
I-1
sg6
(lp6245
(i__main__
tree
p6246
(dp6247
g4
g13
(g17
S'\n#)\ro=\xe8?'
p6248
tp6249
Rp6250
sg5
I1
sg6
(lp6251
sg24
I-1
sg25
I-1
sba(i__main__
tree
p6252
(dp6253
g4
F0.0
sg5
I-1
sg6
(lp6254
(i__main__
tree
p6255
(dp6256
g4
g13
(g17
S'\x1eV\x0b\xb5\x02p\xca?'
p6257
tp6258
Rp6259
sg5
I1
sg6
(lp6260
sg24
I-1
sg25
I-1
sba(i__main__
tree
p6261
(dp6262
g4
g13
(g17
S'D\xb2N\xbf^4\xc3?'
p6263
tp6264
Rp6265
sg5
I0
sg6
(lp6266
sg24
I-1
sg25
I-1
sbasg24
I-1
sg25
g13
(g55
S'\x18\x00\x00\x00\x00\x00\x00\x00'
p6267
tp6268
Rp6269
sbasg24
I-1
sg25
g13
(g55
S'\x13\x00\x00\x00\x00\x00\x00\x00'
p6270
tp6271
Rp6272
sba(i__main__
tree
p6273
(dp6274
g4
F0.0
sg5
I-1
sg6
(lp6275
(i__main__
tree
p6276
(dp6277
g4
F0.0
sg5
I-1
sg6
(lp6278
(i__main__
tree
p6279
(dp6280
g4
g13
(g17
S'\xfc\xc9\xf4J\xa5\x18\xe2?'
p6281
tp6282
Rp6283
sg5
I0
sg6
(lp6284
sg24
I-1
sg25
I-1
sba(i__main__
tree
p6285
(dp6286
g4
g13
(g17
S'\x1eV\x0b\xb5\x02p\xca?'
p6287
tp6288
Rp6289
sg5
I1
sg6
(lp6290
sg24
I-1
sg25
I-1
sbasg24
I-1
sg25
g13
(g55
S'\x19\x00\x00\x00\x00\x00\x00\x00'
p6291
tp6292
Rp6293
sba(i__main__
tree
p6294
(dp6295
g4
F0.0
sg5
I-1
sg6
(lp6296
(i__main__
tree
p6297
(dp6298
g4
g13
(g17
S'\xd9\xa0.\rl\xe9\xd5?'
p6299
tp6300
Rp6301
sg5
I1
sg6
(lp6302
sg24
I-1
sg25
I-1
sba(i__main__
tree
p6303
(dp6304
g4
g13
(g17
S'\xda\xa0.\rl\xe9\xc5?'
p6305
tp6306
Rp6307
sg5
I0
sg6
(lp6308
sg24
I-1
sg25
I-1
sbasg24
I-1
sg25
g13
(g55
S'\x19\x00\x00\x00\x00\x00\x00\x00'
p6309
tp6310
Rp6311
sbasg24
I-1
sg25
g13
(g55
S'\x18\x00\x00\x00\x00\x00\x00\x00'
p6312
tp6313
Rp6314
sbasg24
I-1
sg25
g13
(g55
S'\x08\x00\x00\x00\x00\x00\x00\x00'
p6315
tp6316
Rp6317
sba(i__main__
tree
p6318
(dp6319
g4
F0.0
sg5
I-1
sg6
(lp6320
(i__main__
tree
p6321
(dp6322
g4
F0.0
sg5
I-1
sg6
(lp6323
(i__main__
tree
p6324
(dp6325
g4
g13
(g17
S'\xd9\xa0.\rl\xe9\xd5?'
p6326
tp6327
Rp6328
sg5
I0
sg6
(lp6329
sg24
I-1
sg25
I-1
sba(i__main__
tree
p6330
(dp6331
g4
g13
(g17
S'\xda\xa0.\rl\xe9\xc5?'
p6332
tp6333
Rp6334
sg5
I0
sg6
(lp6335
sg24
I-1
sg25
I-1
sbasg24
I-1
sg25
g13
(g55
S'\x18\x00\x00\x00\x00\x00\x00\x00'
p6336
tp6337
Rp6338
sba(i__main__
tree
p6339
(dp6340
g4
g13
(g17
S'd\xb0_4Wm\xe6?'
p6341
tp6342
Rp6343
sg5
I0
sg6
(lp6344
sg24
I-1
sg25
I-1
sbasg24
I-1
sg25
g13
(g55
S'\x08\x00\x00\x00\x00\x00\x00\x00'
p6345
tp6346
Rp6347
sbasg24
I-1
sg25
g13
(g55
S'\x10\x00\x00\x00\x00\x00\x00\x00'
p6348
tp6349
Rp6350
sbasg24
I-1
sg25
g13
(g55
S'\x05\x00\x00\x00\x00\x00\x00\x00'
p6351
tp6352
Rp6353
sba(i__main__
tree
p6354
(dp6355
g4
F0.0
sg5
I-1
sg6
(lp6356
(i__main__
tree
p6357
(dp6358
g4
F0.0
sg5
I-1
sg6
(lp6359
(i__main__
tree
p6360
(dp6361
g4
F0.0
sg5
I-1
sg6
(lp6362
(i__main__
tree
p6363
(dp6364
g4
F0.0
sg5
I-1
sg6
(lp6365
(i__main__
tree
p6366
(dp6367
g4
g13
(g17
S'?\xd8\xfd\xccH\x10\xdc?'
p6368
tp6369
Rp6370
sg5
I1
sg6
(lp6371
sg24
I-1
sg25
I-1
sba(i__main__
tree
p6372
(dp6373
g4
g13
(g17
S'\x1eV\x0b\xb5\x02p\xca?'
p6374
tp6375
Rp6376
sg5
I0
sg6
(lp6377
sg24
I-1
sg25
I-1
sbasg24
I-1
sg25
g13
(g55
S'\x10\x00\x00\x00\x00\x00\x00\x00'
p6378
tp6379
Rp6380
sba(i__main__
tree
p6381
(dp6382
g4
g13
(g17
S'z\x1b\x9eg\x11^\xec?'
p6383
tp6384
Rp6385
sg5
I1
sg6
(lp6386
sg24
I-1
sg25
I-1
sbasg24
I-1
sg25
g13
(g55
S'\x05\x00\x00\x00\x00\x00\x00\x00'
p6387
tp6388
Rp6389
sba(i__main__
tree
p6390
(dp6391
g4
F0.0
sg5
I-1
sg6
(lp6392
(i__main__
tree
p6393
(dp6394
g4
g13
(g17
S'\xf6u\x8e;\xeb\xcd\xe9?'
p6395
tp6396
Rp6397
sg5
I0
sg6
(lp6398
sg24
I-1
sg25
I-1
sba(i__main__
tree
p6399
(dp6400
g4
F0.0
sg5
I-1
sg6
(lp6401
(i__main__
tree
p6402
(dp6403
g4
F0.0
sg5
I-1
sg6
(lp6404
(i__main__
tree
p6405
(dp6406
g4
g13
(g17
S'\xf4\xa4\xe2\xc9\x1b|\xd8?'
p6407
tp6408
Rp6409
sg5
I1
sg6
(lp6410
sg24
I-1
sg25
I-1
sba(i__main__
tree
p6411
(dp6412
g4
g13
(g17
S'\x1eV\x0b\xb5\x02p\xca?'
p6413
tp6414
Rp6415
sg5
I1
sg6
(lp6416
sg24
I-1
sg25
I-1
sbasg24
I-1
sg25
g13
(g55
S'\x13\x00\x00\x00\x00\x00\x00\x00'
p6417
tp6418
Rp6419
sba(i__main__
tree
p6420
(dp6421
g4
g13
(g17
S'\x1eV\x0b\xb5\x02p\xca?'
p6422
tp6423
Rp6424
sg5
I0
sg6
(lp6425
sg24
I-1
sg25
I-1
sbasg24
I-1
sg25
g13
(g55
S'\x10\x00\x00\x00\x00\x00\x00\x00'
p6426
tp6427
Rp6428
sbasg24
I-1
sg25
g13
(g55
S'\x05\x00\x00\x00\x00\x00\x00\x00'
p6429
tp6430
Rp6431
sbasg24
I-1
sg25
g13
(g55
S'\x08\x00\x00\x00\x00\x00\x00\x00'
p6432
tp6433
Rp6434
sba(i__main__
tree
p6435
(dp6436
g4
g13
(g17
S'%\x12s\xd9V<\xef?'
p6437
tp6438
Rp6439
sg5
I1
sg6
(lp6440
sg24
I-1
sg25
I-1
sbasg24
I-1
sg25
g13
(g55
S'\x18\x00\x00\x00\x00\x00\x00\x00'
p6441
tp6442
Rp6443
sbasg24
I-1
sg25
g13
(g55
S'\x0b\x00\x00\x00\x00\x00\x00\x00'
p6444
tp6445
Rp6446
sbsS'4Versus5'
p6447
(i__main__
tree
p6448
(dp6449
g4
F0.0
sg5
I-1
sg6
(lp6450
(i__main__
tree
p6451
(dp6452
g4
F0.0
sg5
I-1
sg6
(lp6453
(i__main__
tree
p6454
(dp6455
g4
g13
(g17
S'e5h\xe2\xea\x0e\xee?'
p6456
tp6457
Rp6458
sg5
I1
sg6
(lp6459
sg24
I-1
sg25
I-1
sba(i__main__
tree
p6460
(dp6461
g4
F0.0
sg5
I-1
sg6
(lp6462
(i__main__
tree
p6463
(dp6464
g4
F0.0
sg5
I-1
sg6
(lp6465
(i__main__
tree
p6466
(dp6467
g4
g13
(g17
S'\xde\xf4\xa67\xbdy\xe9?'
p6468
tp6469
Rp6470
sg5
I0
sg6
(lp6471
sg24
I-1
sg25
I-1
sba(i__main__
tree
p6472
(dp6473
g4
F0.0
sg5
I-1
sg6
(lp6474
(i__main__
tree
p6475
(dp6476
g4
g13
(g17
S'\xd9\xa0.\rl\xe9\xd5?'
p6477
tp6478
Rp6479
sg5
I1
sg6
(lp6480
sg24
I-1
sg25
I-1
sba(i__main__
tree
p6481
(dp6482
g4
g13
(g17
S'N\xc3A1\xbdR\xe0?'
p6483
tp6484
Rp6485
sg5
I0
sg6
(lp6486
sg24
I-1
sg25
I-1
sbasg24
I-1
sg25
g13
(g55
S'\x18\x00\x00\x00\x00\x00\x00\x00'
p6487
tp6488
Rp6489
sbasg24
I-1
sg25
g13
(g55
S'\x0e\x00\x00\x00\x00\x00\x00\x00'
p6490
tp6491
Rp6492
sba(i__main__
tree
p6493
(dp6494
g4
F0.0
sg5
I-1
sg6
(lp6495
(i__main__
tree
p6496
(dp6497
g4
g13
(g17
S'"Fz\x14d\x1e\xe7?'
p6498
tp6499
Rp6500
sg5
I1
sg6
(lp6501
sg24
I-1
sg25
I-1
sba(i__main__
tree
p6502
(dp6503
g4
F0.0
sg5
I-1
sg6
(lp6504
(i__main__
tree
p6505
(dp6506
g4
g13
(g17
S'\x1eV\x0b\xb5\x02p\xca?'
p6507
tp6508
Rp6509
sg5
I0
sg6
(lp6510
sg24
I-1
sg25
I-1
sba(i__main__
tree
p6511
(dp6512
g4
g13
(g17
S'\xd9\xa0.\rl\xe9\xd5?'
p6513
tp6514
Rp6515
sg5
I1
sg6
(lp6516
sg24
I-1
sg25
I-1
sbasg24
I-1
sg25
g13
(g55
S'\x0e\x00\x00\x00\x00\x00\x00\x00'
p6517
tp6518
Rp6519
sbasg24
I-1
sg25
g13
(g55
S'\x18\x00\x00\x00\x00\x00\x00\x00'
p6520
tp6521
Rp6522
sbasg24
I-1
sg25
g13
(g55
S'\x10\x00\x00\x00\x00\x00\x00\x00'
p6523
tp6524
Rp6525
sbasg24
I-1
sg25
g13
(g55
S'\x05\x00\x00\x00\x00\x00\x00\x00'
p6526
tp6527
Rp6528
sba(i__main__
tree
p6529
(dp6530
g4
F0.0
sg5
I-1
sg6
(lp6531
(i__main__
tree
p6532
(dp6533
g4
g13
(g17
S'\xae|\x1e5\xb3\xce\xee?'
p6534
tp6535
Rp6536
sg5
I0
sg6
(lp6537
sg24
I-1
sg25
I-1
sba(i__main__
tree
p6538
(dp6539
g4
F0.0
sg5
I-1
sg6
(lp6540
(i__main__
tree
p6541
(dp6542
g4
F0.0
sg5
I-1
sg6
(lp6543
(i__main__
tree
p6544
(dp6545
g4
g13
(g17
S'd\xb0_4Wm\xe6?'
p6546
tp6547
Rp6548
sg5
I1
sg6
(lp6549
sg24
I-1
sg25
I-1
sba(i__main__
tree
p6550
(dp6551
g4
F0.0
sg5
I-1
sg6
(lp6552
(i__main__
tree
p6553
(dp6554
g4
g13
(g17
S'\xd9\xa0.\rl\xe9\xd5?'
p6555
tp6556
Rp6557
sg5
I0
sg6
(lp6558
sg24
I-1
sg25
I-1
sba(i__main__
tree
p6559
(dp6560
g4
g13
(g17
S'\x1eV\x0b\xb5\x02p\xca?'
p6561
tp6562
Rp6563
sg5
I1
sg6
(lp6564
sg24
I-1
sg25
I-1
sbasg24
I-1
sg25
g13
(g55
S'\x03\x00\x00\x00\x00\x00\x00\x00'
p6565
tp6566
Rp6567
sbasg24
I-1
sg25
g13
(g55
S'\x18\x00\x00\x00\x00\x00\x00\x00'
p6568
tp6569
Rp6570
sba(i__main__
tree
p6571
(dp6572
g4
F0.0
sg5
I-1
sg6
(lp6573
(i__main__
tree
p6574
(dp6575
g4
g13
(g17
S'`gZD\x05\x1a\xea?'
p6576
tp6577
Rp6578
sg5
I0
sg6
(lp6579
sg24
I-1
sg25
I-1
sba(i__main__
tree
p6580
(dp6581
g4
F0.0
sg5
I-1
sg6
(lp6582
(i__main__
tree
p6583
(dp6584
g4
g13
(g17
S'\xd9\xa0.\rl\xe9\xd5?'
p6585
tp6586
Rp6587
sg5
I1
sg6
(lp6588
sg24
I-1
sg25
I-1
sba(i__main__
tree
p6589
(dp6590
g4
g13
(g17
S'\xd9\xa0.\rl\xe9\xd5?'
p6591
tp6592
Rp6593
sg5
I0
sg6
(lp6594
sg24
I-1
sg25
I-1
sbasg24
I-1
sg25
g13
(g55
S'\x18\x00\x00\x00\x00\x00\x00\x00'
p6595
tp6596
Rp6597
sbasg24
I-1
sg25
g13
(g55
S'\x03\x00\x00\x00\x00\x00\x00\x00'
p6598
tp6599
Rp6600
sbasg24
I-1
sg25
g13
(g55
S'\x05\x00\x00\x00\x00\x00\x00\x00'
p6601
tp6602
Rp6603
sbasg24
I-1
sg25
g13
(g55
S'\x10\x00\x00\x00\x00\x00\x00\x00'
p6604
tp6605
Rp6606
sbasg24
I-1
sg25
g13
(g55
S'\x0b\x00\x00\x00\x00\x00\x00\x00'
p6607
tp6608
Rp6609
sbsS'2Versus5'
p6610
(i__main__
tree
p6611
(dp6612
g4
F0.0
sg5
I-1
sg6
(lp6613
(i__main__
tree
p6614
(dp6615
g4
F0.0
sg5
I-1
sg6
(lp6616
(i__main__
tree
p6617
(dp6618
g4
F0.0
sg5
I-1
sg6
(lp6619
(i__main__
tree
p6620
(dp6621
g4
F0.0
sg5
I-1
sg6
(lp6622
(i__main__
tree
p6623
(dp6624
g4
F0.0
sg5
I-1
sg6
(lp6625
(i__main__
tree
p6626
(dp6627
g4
F0.0
sg5
I-1
sg6
(lp6628
(i__main__
tree
p6629
(dp6630
g4
F0.0
sg5
I-1
sg6
(lp6631
(i__main__
tree
p6632
(dp6633
g4
g13
(g17
S'r\x0b\xa8^\xa1\xda\xd7?'
p6634
tp6635
Rp6636
sg5
I1
sg6
(lp6637
sg24
I-1
sg25
I-1
sba(i__main__
tree
p6638
(dp6639
g4
g13
(g17
S'.\x11\xbc\xd3o\x82\xcf?'
p6640
tp6641
Rp6642
sg5
I0
sg6
(lp6643
sg24
I-1
sg25
I-1
sbasg24
I-1
sg25
g13
(g55
S'\x0e\x00\x00\x00\x00\x00\x00\x00'
p6644
tp6645
Rp6646
sba(i__main__
tree
p6647
(dp6648
g4
F0.0
sg5
I-1
sg6
(lp6649
(i__main__
tree
p6650
(dp6651
g4
g13
(g17
S'\xda\xa0.\rl\xe9\xc5?'
p6652
tp6653
Rp6654
sg5
I0
sg6
(lp6655
sg24
I-1
sg25
I-1
sba(i__main__
tree
p6656
(dp6657
g4
g13
(g17
S')\x90\xfe\xdd\x85\xb5\xd2?'
p6658
tp6659
Rp6660
sg5
I1
sg6
(lp6661
sg24
I-1
sg25
I-1
sbasg24
I-1
sg25
g13
(g55
S'\x0e\x00\x00\x00\x00\x00\x00\x00'
p6662
tp6663
Rp6664
sbasg24
I-1
sg25
g13
(g55
S'\x03\x00\x00\x00\x00\x00\x00\x00'
p6665
tp6666
Rp6667
sba(i__main__
tree
p6668
(dp6669
g4
F0.0
sg5
I-1
sg6
(lp6670
(i__main__
tree
p6671
(dp6672
g4
g13
(g17
S',C!\xab;\xf4\xdc?'
p6673
tp6674
Rp6675
sg5
I1
sg6
(lp6676
sg24
I-1
sg25
I-1
sba(i__main__
tree
p6677
(dp6678
g4
g13
(g17
S'\x1eV\x0b\xb5\x02p\xca?'
p6679
tp6680
Rp6681
sg5
I0
sg6
(lp6682
sg24
I-1
sg25
I-1
sbasg24
I-1
sg25
g13
(g55
S'\x03\x00\x00\x00\x00\x00\x00\x00'
p6683
tp6684
Rp6685
sbasg24
I-1
sg25
g13
(g55
S'+\x00\x00\x00\x00\x00\x00\x00'
p6686
tp6687
Rp6688
sba(i__main__
tree
p6689
(dp6690
g4
F0.0
sg5
I-1
sg6
(lp6691
(i__main__
tree
p6692
(dp6693
g4
g13
(g17
S'N\xc3A1\xbdR\xe0?'
p6694
tp6695
Rp6696
sg5
I0
sg6
(lp6697
sg24
I-1
sg25
I-1
sba(i__main__
tree
p6698
(dp6699
g4
g13
(g17
S'\x1eV\x0b\xb5\x02p\xca?'
p6700
tp6701
Rp6702
sg5
I1
sg6
(lp6703
sg24
I-1
sg25
I-1
sbasg24
I-1
sg25
g13
(g55
S'\x03\x00\x00\x00\x00\x00\x00\x00'
p6704
tp6705
Rp6706
sbasg24
I-1
sg25
g13
(g55
S'\r\x00\x00\x00\x00\x00\x00\x00'
p6707
tp6708
Rp6709
sba(i__main__
tree
p6710
(dp6711
g4
F0.0
sg5
I-1
sg6
(lp6712
(i__main__
tree
p6713
(dp6714
g4
F0.0
sg5
I-1
sg6
(lp6715
(i__main__
tree
p6716
(dp6717
g4
F0.0
sg5
I-1
sg6
(lp6718
(i__main__
tree
p6719
(dp6720
g4
g13
(g17
S'\xce\x98Z\xd2,\xa8\xd4?'
p6721
tp6722
Rp6723
sg5
I0
sg6
(lp6724
sg24
I-1
sg25
I-1
sba(i__main__
tree
p6725
(dp6726
g4
g13
(g17
S')\x90\xfe\xdd\x85\xb5\xd2?'
p6727
tp6728
Rp6729
sg5
I1
sg6
(lp6730
sg24
I-1
sg25
I-1
sbasg24
I-1
sg25
g13
(g55
S'\x03\x00\x00\x00\x00\x00\x00\x00'
p6731
tp6732
Rp6733
sba(i__main__
tree
p6734
(dp6735
g4
g13
(g17
S'Br}\xc3c\xb3\xe8?'
p6736
tp6737
Rp6738
sg5
I1
sg6
(lp6739
sg24
I-1
sg25
I-1
sbasg24
I-1
sg25
g13
(g55
S'\r\x00\x00\x00\x00\x00\x00\x00'
p6740
tp6741
Rp6742
sba(i__main__
tree
p6743
(dp6744
g4
F0.0
sg5
I-1
sg6
(lp6745
(i__main__
tree
p6746
(dp6747
g4
g13
(g17
S'\xde\xf4\xa67\xbdy\xe9?'
p6748
tp6749
Rp6750
sg5
I1
sg6
(lp6751
sg24
I-1
sg25
I-1
sba(i__main__
tree
p6752
(dp6753
g4
F0.0
sg5
I-1
sg6
(lp6754
(i__main__
tree
p6755
(dp6756
g4
g13
(g17
S'\x1eV\x0b\xb5\x02p\xca?'
p6757
tp6758
Rp6759
sg5
I1
sg6
(lp6760
sg24
I-1
sg25
I-1
sba(i__main__
tree
p6761
(dp6762
g4
g13
(g17
S')\x90\xfe\xdd\x85\xb5\xd2?'
p6763
tp6764
Rp6765
sg5
I1
sg6
(lp6766
sg24
I-1
sg25
I-1
sbasg24
I-1
sg25
g13
(g55
S'\x03\x00\x00\x00\x00\x00\x00\x00'
p6767
tp6768
Rp6769
sbasg24
I-1
sg25
g13
(g55
S'\r\x00\x00\x00\x00\x00\x00\x00'
p6770
tp6771
Rp6772
sbasg24
I-1
sg25
g13
(g55
S'\x0e\x00\x00\x00\x00\x00\x00\x00'
p6773
tp6774
Rp6775
sbasg24
I-1
sg25
g13
(g55
S',\x00\x00\x00\x00\x00\x00\x00'
p6776
tp6777
Rp6778
sba(i__main__
tree
p6779
(dp6780
g4
g13
(g17
S'j`\n\xf6\xd9\x88\xed?'
p6781
tp6782
Rp6783
sg5
I1
sg6
(lp6784
sg24
I-1
sg25
I-1
sbasg24
I-1
sg25
g13
(g55
S'\x00\x00\x00\x00\x00\x00\x00\x00'
p6785
tp6786
Rp6787
sba(i__main__
tree
p6788
(dp6789
g4
F0.0
sg5
I-1
sg6
(lp6790
(i__main__
tree
p6791
(dp6792
g4
F0.0
sg5
I-1
sg6
(lp6793
(i__main__
tree
p6794
(dp6795
g4
g13
(g17
S'/\x95L\xef\xb2^\xee?'
p6796
tp6797
Rp6798
sg5
I0
sg6
(lp6799
sg24
I-1
sg25
I-1
sba(i__main__
tree
p6800
(dp6801
g4
F0.0
sg5
I-1
sg6
(lp6802
(i__main__
tree
p6803
(dp6804
g4
F0.0
sg5
I-1
sg6
(lp6805
(i__main__
tree
p6806
(dp6807
g4
F0.0
sg5
I-1
sg6
(lp6808
(i__main__
tree
p6809
(dp6810
g4
F0.0
sg5
I-1
sg6
(lp6811
(i__main__
tree
p6812
(dp6813
g4
g13
(g17
S'\xd1\xe5,\xbe\x96\xea\xe2?'
p6814
tp6815
Rp6816
sg5
I0
sg6
(lp6817
sg24
I-1
sg25
I-1
sba(i__main__
tree
p6818
(dp6819
g4
g13
(g17
S'\xd9\xa0.\rl\xe9\xd5?'
p6820
tp6821
Rp6822
sg5
I0
sg6
(lp6823
sg24
I-1
sg25
I-1
sbasg24
I-1
sg25
g13
(g55
S'\x03\x00\x00\x00\x00\x00\x00\x00'
p6824
tp6825
Rp6826
sba(i__main__
tree
p6827
(dp6828
g4
g13
(g17
S'N\xc3A1\xbdR\xe0?'
p6829
tp6830
Rp6831
sg5
I0
sg6
(lp6832
sg24
I-1
sg25
I-1
sbasg24
I-1
sg25
g13
(g55
S',\x00\x00\x00\x00\x00\x00\x00'
p6833
tp6834
Rp6835
sba(i__main__
tree
p6836
(dp6837
g4
g13
(g17
S'\x1e\x027\x96A\xa9\xe4?'
p6838
tp6839
Rp6840
sg5
I0
sg6
(lp6841
sg24
I-1
sg25
I-1
sbasg24
I-1
sg25
g13
(g55
S'+\x00\x00\x00\x00\x00\x00\x00'
p6842
tp6843
Rp6844
sba(i__main__
tree
p6845
(dp6846
g4
F0.0
sg5
I-1
sg6
(lp6847
(i__main__
tree
p6848
(dp6849
g4
g13
(g17
S'\xd9\xa0.\rl\xe9\xd5?'
p6850
tp6851
Rp6852
sg5
I0
sg6
(lp6853
sg24
I-1
sg25
I-1
sba(i__main__
tree
p6854
(dp6855
g4
g13
(g17
S'\xd9\xa0.\rl\xe9\xd5?'
p6856
tp6857
Rp6858
sg5
I1
sg6
(lp6859
sg24
I-1
sg25
I-1
sbasg24
I-1
sg25
g13
(g55
S'\x03\x00\x00\x00\x00\x00\x00\x00'
p6860
tp6861
Rp6862
sbasg24
I-1
sg25
g13
(g55
S'\r\x00\x00\x00\x00\x00\x00\x00'
p6863
tp6864
Rp6865
sbasg24
I-1
sg25
g13
(g55
S'\x00\x00\x00\x00\x00\x00\x00\x00'
p6866
tp6867
Rp6868
sba(i__main__
tree
p6869
(dp6870
g4
F0.0
sg5
I-1
sg6
(lp6871
(i__main__
tree
p6872
(dp6873
g4
F0.0
sg5
I-1
sg6
(lp6874
(i__main__
tree
p6875
(dp6876
g4
g13
(g17
S'\x92\x02p\x7f\x1f\x1c\xe9?'
p6877
tp6878
Rp6879
sg5
I0
sg6
(lp6880
sg24
I-1
sg25
I-1
sba(i__main__
tree
p6881
(dp6882
g4
F0.0
sg5
I-1
sg6
(lp6883
(i__main__
tree
p6884
(dp6885
g4
g13
(g17
S'\xd9\xa0.\rl\xe9\xd5?'
p6886
tp6887
Rp6888
sg5
I1
sg6
(lp6889
sg24
I-1
sg25
I-1
sba(i__main__
tree
p6890
(dp6891
g4
F0.0
sg5
I-1
sg6
(lp6892
(i__main__
tree
p6893
(dp6894
g4
g13
(g17
S')\x90\xfe\xdd\x85\xb5\xd2?'
p6895
tp6896
Rp6897
sg5
I0
sg6
(lp6898
sg24
I-1
sg25
I-1
sba(i__main__
tree
p6899
(dp6900
g4
g13
(g17
S'\xd9\xa0.\rl\xe9\xd5?'
p6901
tp6902
Rp6903
sg5
I0
sg6
(lp6904
sg24
I-1
sg25
I-1
sbasg24
I-1
sg25
g13
(g55
S'\x03\x00\x00\x00\x00\x00\x00\x00'
p6905
tp6906
Rp6907
sbasg24
I-1
sg25
g13
(g55
S'+\x00\x00\x00\x00\x00\x00\x00'
p6908
tp6909
Rp6910
sbasg24
I-1
sg25
g13
(g55
S',\x00\x00\x00\x00\x00\x00\x00'
p6911
tp6912
Rp6913
sba(i__main__
tree
p6914
(dp6915
g4
F0.0
sg5
I-1
sg6
(lp6916
(i__main__
tree
p6917
(dp6918
g4
F0.0
sg5
I-1
sg6
(lp6919
(i__main__
tree
p6920
(dp6921
g4
g13
(g17
S'?\xd8\xfd\xccH\x10\xdc?'
p6922
tp6923
Rp6924
sg5
I0
sg6
(lp6925
sg24
I-1
sg25
I-1
sba(i__main__
tree
p6926
(dp6927
g4
g13
(g17
S'\xda\xa0.\rl\xe9\xc5?'
p6928
tp6929
Rp6930
sg5
I0
sg6
(lp6931
sg24
I-1
sg25
I-1
sbasg24
I-1
sg25
g13
(g55
S',\x00\x00\x00\x00\x00\x00\x00'
p6932
tp6933
Rp6934
sba(i__main__
tree
p6935
(dp6936
g4
g13
(g17
S'\x1c\xa3\x87SO\x82\xe3?'
p6937
tp6938
Rp6939
sg5
I1
sg6
(lp6940
sg24
I-1
sg25
I-1
sbasg24
I-1
sg25
g13
(g55
S'\x03\x00\x00\x00\x00\x00\x00\x00'
p6941
tp6942
Rp6943
sbasg24
I-1
sg25
g13
(g55
S'\x00\x00\x00\x00\x00\x00\x00\x00'
p6944
tp6945
Rp6946
sbasg24
I-1
sg25
g13
(g55
S'\x0e\x00\x00\x00\x00\x00\x00\x00'
p6947
tp6948
Rp6949
sbasg24
I-1
sg25
g13
(g55
S'\x08\x00\x00\x00\x00\x00\x00\x00'
p6950
tp6951
Rp6952
sbsa.